# file opened: dung.asm
  1   0000              ;-------------------------------------------;
  2   0000              ; 	D U N G E O L O G Y - zx spectrum
  3   0000              ;-------------------------------------------;
  4   0000
  5   0000              	DEVICE	ZXSPECTRUM48
  6   0000              	EMPTYTAP "dng.tap"
  7   0000
  8   0000              		include	defs/struct.def
# file opened: struct.def
  1+  0000              	STRUCT	Stat
  2+  0000 ~            hp				db	16
  3+  0000 ~            str				db	10
  4+  0000 ~            def				db	8
  5+  0000              	ENDS
  6+  0000
  7+  0000              ; ----------------------------
  8+  0000              	STRUCT	Inventory
  9+  0000 ~            weapon			db
 10+  0000 ~            armour			db
 11+  0000 ~            keys			db
 11+  0000 ~              db			; 2 bajtowe pole flag, klucz nr 1 = 7 bit lsb
 12+  0000              	ENDS
 13+  0000
 14+  0000              ; ----------------------------
 15+  0000              	STRUCT	Character
 16+  0000 ~            ;mapY			db
 17+  0000 ~            ;mapX			db
 18+  0000 ~            direction		db
 19+  0000 ~            offset			dw
 20+  0000 ~            stat			Stat
 21+  0000 ~            bag				Inventory
 22+  0000              	ENDS
 23+  0000
 24+  0000              ; ----------------------------
 25+  0000              ;	STRUCT	Attribute
 26+  0000              ;	ENDS
 27+  0000
 28+  0000              ; ----------------------------
 29+  0000              	STRUCT	Map
 30+  0000 ~            width		db
 31+  0000 ~            height		db
 32+  0000 ~            size		dw
 33+  0000              	ENDS
 34+  0000
# file closed: struct.def
  9   0000              		include	defs/macro.def
# file opened: macro.def
  1+  0000              MUL_Ax8_TO_HL	MACRO
  2+  0000 ~            		ld	h,0
  3+  0000 ~            		ld	l,a
  4+  0000 ~            		add	hl,hl
  5+  0000 ~            		add	hl,hl
  6+  0000 ~            		add	hl,hl
  7+  0000              		ENDM
  8+  0000              ; ========================
  9+  0000
 10+  0000              CLEAR_LINES	MACRO	_end_of_area, _lines
 11+  0000 ~            		ld	de,0000h
 12+  0000 ~            		ld	hl,0000h
 13+  0000 ~            		add	hl,sp			; save SP
 14+  0000 ~            		ld	sp,_end_of_area	; czysci od gory
 15+  0000 ~            		ld	b,_lines		; 192 = 6144 / ( 16 x 2 )
 16+  0000 ~            .clear_block:
 17+  0000 ~            	REPT	16				; zeruje 32 bajty na obrot
 18+  0000 ~            		push	de
 19+  0000 ~            	ENDR
 20+  0000 ~            		djnz	.clear_block
 21+  0000 ~            		ld	sp,hl			; restore SP
 22+  0000              		ENDM
 23+  0000              ; =======================
 24+  0000              clear_txtline	MACRO _txtline
 25+  0000 ~            		ld	hl,_txtline
 26+  0000 ~            		ld	e,l
 27+  0000 ~            		ld	b,8
 28+  0000 ~            		xor	a
 29+  0000 ~            .clear_block:
 30+  0000 ~            	REPT	32
 31+  0000 ~            		ld	(hl),a
 32+  0000 ~            		inc	hl
 33+  0000 ~            	ENDR
 34+  0000 ~            		ld	l,e
 35+  0000 ~            		inc	h
 36+  0000 ~            		djnz	.clear_block
 37+  0000              		ENDM
 38+  0000
 39+  0000              ; =======================
 40+  0000              BORDER_COLOR	MACRO	_color
 41+  0000 ~            		ld	a,_color
 42+  0000 ~            		out	(0FEh),a
 43+  0000              		ENDM
 44+  0000
 45+  0000              ; =======================
 46+  0000              SET_COLOR	MACRO _paper_ink, _adress, _rows
 47+  0000 ~            		ld de, _paper_ink * 256 + _paper_ink
 48+  0000 ~            		ld	hl,0000h
 49+  0000 ~            		add	hl,sp			; save SP
 50+  0000 ~            		ld	sp,_adress
 51+  0000 ~            		ld	b,_rows
 52+  0000 ~            .colour_block:
 53+  0000 ~            	REPT	16				; zeruje 32 bajty na obrot
 54+  0000 ~            		push	de
 55+  0000 ~            	ENDR
 56+  0000 ~            		djnz	.colour_block
 57+  0000 ~            		ld	sp,hl			; restore SP
 58+  0000              		ENDM
 59+  0000
 60+  0000              ; =================
 61+  0000              ; IN:	Y,X w DE
 62+  0000              ; =================
 63+  0000              SET_ATR_LINE	MACRO _paper_ink, _col
 64+  0000 ~            		ld	a,d
 65+  0000 ~            		add	a,a
 66+  0000 ~            		add	a,a
 67+  0000 ~            		add	a,a
 68+  0000 ~            		ld	l,a
 69+  0000 ~            		ld	h,0
 70+  0000 ~            		add	hl,hl
 71+  0000 ~            		add hl,hl
 72+  0000 ~            		ld	a,e
 73+  0000 ~            		add	a,l
 74+  0000 ~            		ld	l,a
 75+  0000 ~            		ld	a,ATR_MSB
 76+  0000 ~            		add	a,h
 77+  0000 ~            		ld	h,a
 78+  0000 ~            		ld	a,_paper_ink
 79+  0000 ~            	IF	NUL _col
 80+  0000 ~            		ld	(hl),a
 81+  0000 ~            		inc	l
 82+  0000 ~            	ELSE
 83+  0000 ~            		REPT	_col
 84+  0000 ~            			ld	(hl),a
 85+  0000 ~            			inc	l
 86+  0000 ~            		ENDR
 87+  0000 ~            	ENDIF
 88+  0000              		ENDM
 89+  0000
 90+  0000              ; =========================
 91+  0000              SET_ATR_BLOCK	MACRO _paper_ink, _col, _lines
 92+  0000 ~            		ld	b,_lines
 93+  0000 ~            .next_ln:
 94+  0000 ~            		set_atr _paper_ink, _col
 95+  0000 ~            		inc	d
 96+  0000 ~            		djnz	.next_ln
 97+  0000              		ENDM
 98+  0000
 99+  0000              ; =========================
100+  0000              ; IN : DE - adres Tile na ekranie, A'- atrybut
101+  0000              print_attribute_2buffer	MACRO
102+  0000 ~            		ld	h,ATR3_BUF_MSB
103+  0000 ~            		ld	l,e
104+  0000 ~            		ex	af,af'
105+  0000 ~            		ld	(hl),a
106+  0000 ~            		ex	af,af'
107+  0000              		ENDM
108+  0000
109+  0000              ; ========================
110+  0000              PRINT_ATR	MACRO
111+  0000 ~            		ld	a,d
112+  0000 ~            		cp	$48
113+  0000 ~            		jr	z,t2
114+  0000 ~            		jr	nc,t3
115+  0000 ~            		ld	h,ATR1_MSB
116+  0000 ~            		jr	cmn
117+  0000 ~            t2:
118+  0000 ~            		ld	h,ATR2_MSB
119+  0000 ~            		jr	cmn
120+  0000 ~            t3:
121+  0000 ~            		ld	h,ATR3_BUF_MSB
122+  0000 ~            cmn:
123+  0000 ~            		ld	l,e
124+  0000 ~            		ex	af,af'
125+  0000 ~            		ld	(hl),a
126+  0000 ~            		ex	af,af'
127+  0000              		ENDM
128+  0000
129+  0000              ; =========================
130+  0000              PRINT_STR	MACRO	_scradr, _msgadr
131+  0000 ~            		ld	de,_scradr
132+  0000 ~            		ld	bc,_msgadr
133+  0000 ~            		call	pstring
134+  0000              		ENDM
135+  0000
136+  0000              ; ===========================
137+  0000              atrbuf_2_atr	MACRO
138+  0000 ~            		ld	de,ATR3
139+  0000 ~            		ld	hl,ATR3_BUF
140+  0000 ~            		ld	bc,32 * 8
141+  0000 ~            		ldir
142+  0000              		ENDM
143+  0000
# file closed: macro.def
 10   0000              		include	defs/const.def
# file opened: const.def
  1+  0000              ; rozmieszczenie elementow ekranu ( od tego liczona jest reszta )
  2+  0000              FOV_Y			equ 13
  3+  0000              FOV_X			equ 4
  4+  0000              MSG_Y			equ	9
  5+  0000              MSG_X			equ	0
  6+  0000              W3D_Y			equ	1
  7+  0000              W3D_X			equ	4
  8+  0000              STS_Y			equ	1
  9+  0000              STS_X			equ	23
 10+  0000              ITM_Y			equ 9
 11+  0000              ITM_X			equ STS_X
 12+  0000
 13+  0000              ; atrybuty
 14+  0000              BLACK			equ	0
 15+  0000              BLUE			equ	1
 16+  0000              RED				equ	2
 17+  0000              PURPLE			equ	3
 18+  0000              GREEN			equ	4
 19+  0000              CYAN			equ	5
 20+  0000              YELLOW			equ	6
 21+  0000              WHITE			equ	7
 22+  0000              BLACK_BGD		equ	0
 23+  0000              BLUE_BGD		equ	8
 24+  0000              RED_BGD			equ	16
 25+  0000              PURPLE_BGD		equ	24
 26+  0000              GREEN_BGD		equ	32
 27+  0000              CYAN_BGD		equ	40
 28+  0000              YELLOW_BGD		equ	48
 29+  0000              WHITE_BGD		equ	56
 30+  0000              BRIGHT			equ	64
 31+  0000              FLASH			equ	128
 32+  0000              SCREEN_WIDTH	equ	32
 33+  0000
 34+  0000              FOV_ATR			equ BLACK_BGD OR RED
 35+  0000              FOV_FRAME_ATR	equ BLACK_BGD OR GREEN
 36+  0000              W3D_ATR			equ BLACK_BGD OR BLUE OR BRIGHT
 37+  0000              W3D_FRAME_ATR	equ BLACK_BGD OR PURPLE
 38+  0000              MSG_ATR			equ BLACK_BGD OR WHITE
 39+  0000              STS_ATR			equ BLACK_BGD OR YELLOW
 40+  0000              ITM_ATR			equ BLACK_BGD OR CYAN
 41+  0000              OFF_ATR			equ BLACK_BGD OR BLACK
 42+  0000
 43+  0000              PORTAL_ATR		equ BLACK_BGD OR YELLOW OR FLASH
 44+  0000              WEAPON_ATR		equ BLACK_BGD OR CYAN
 45+  0000              ARMOUR_ATR		equ BLACK_BGD OR YELLOW
 46+  0000              KEY_ATR			equ BLACK_BGD OR RED
 47+  0000              FIGURE_ATR		equ BLACK_BGD OR WHITE
 48+  0000
 49+  0000
 50+  0000              	; klawiatura
 51+  0000              CS_V			equ	$FE
 52+  0000              A_G				equ	$FD
 53+  0000              Q_T				equ	$FB
 54+  0000              Num1_5			equ	$F7
 55+  0000              Num0_6			equ	$EF
 56+  0000              P_Y				equ	$DF
 57+  0000              Enter_H			equ	$BF
 58+  0000              Space_B			equ	$7F
 59+  0000              	; mapa i hero
 60+  0000              FOV_YX			equ	( FOV_Y * 256 ) + FOV_X
 61+  0000              FOV_WIDTH		equ 9
 62+  0000              FOV_HEIGHT		equ 9
 63+  0000              FOV_FRAME_Y		equ	FOV_Y - 1
 64+  0000              FOV_FRAME_X		equ	FOV_X - 1
 65+  0000              FOV_FRAME_YX	equ	( FOV_FRAME_Y * 256 ) + FOV_FRAME_X
 66+  0000              FOV_FRAME_H		equ	FOV_HEIGHT + 2
 67+  0000              FOV_FRAME_W		equ	FOV_WIDTH + 2
 68+  0000              FFY				equ	FOV_FRAME_Y
 69+  0000              FFX				equ	FOV_FRAME_X
 70+  0000              FFW				equ	FOV_WIDTH + 1
 71+  0000              FFH				equ FOV_HEIGHT + 1
 72+  0000              W3D_HEIGHT		equ	6
 73+  0000              W3D_WIDTH		equ	9
 74+  0000              W3D_YX			equ	( W3D_Y * 256 ) + W3D_X
 75+  0000              W3D_FRAME_Y		equ	W3D_Y - 1
 76+  0000              W3D_FRAME_X		equ	W3D_X - 1
 77+  0000              W3D_FRAME_YX	equ	( W3D_FRAME_Y * 256 ) + W3D_FRAME_X
 78+  0000              W3D_FRAME_H		equ	W3D_HEIGHT + 2
 79+  0000              W3D_FRAME_W		equ	W3D_WIDTH + 2
 80+  0000              F3Y				equ	W3D_FRAME_Y
 81+  0000              F3X				equ	W3D_FRAME_X
 82+  0000              F3W				equ	W3D_WIDTH + 1
 83+  0000              F3H				equ W3D_HEIGHT + 1
 84+  0000              MSG_YX			equ	( MSG_Y * 256 ) + MSG_X
 85+  0000              MSG_WIDTH		equ 17
 86+  0000              MSG_HEIGHT		equ 2
 87+  0000              STS_WIDTH		equ 9
 88+  0000              STS_HEIGHT		equ	7
 89+  0000              ITM_WIDTH		equ 9
 90+  0000              ITM_HEIGHT		equ	3
 91+  0000              STS_YX			equ	( STS_Y * 256 ) + STS_X
 92+  0000              ITM_YX			equ	( ITM_Y * 256 ) + ITM_X
 93+  0000              WALL_CHAR		equ	'#'
 94+  0000              M_WALL_CHAR		equ	'M'
 95+  0000              PREV_WALL		equ	'.'
 96+  0000              FLOOR_CHAR		equ	' '
 97+  0000              C_DOOR_CHAR		equ	'+'
 98+  0000              O_DOOR_CHAR		equ	'/'
 99+  0000              KEY_CHAR		equ	'~'
100+  0000              WEAPON_CHAR		equ	'('
101+  0000              ARMOUR_CHAR		equ	'['
102+  0000              FIGURE_CHAR		equ	'&'
103+  0000              PASSAGE_CHAR	equ	'='
104+  0000              PIT_CHAR		equ	'.'
105+  0000              PORTAL_CHAR		equ	'P'
106+  0000              STRING_DELIM	equ	'$'
107+  0000              TILE_EOL		equ $FF
108+  0000              DELIM			equ	$FF
109+  0000              NONE			equ	$FF
110+  0000              OBJ_MAX			equ	16
111+  0000              HERO_Y			equ	FOV_Y + 4
112+  0000              HERO_X			equ FOV_X + 4
113+  0000              HERO_MAP_Y		equ	2
114+  0000              HERO_MAP_X		equ 2
115+  0000              HERO_ATR		equ BLACK_BGD OR YELLOW
116+  0000              HERO_YX			equ ( HERO_Y * 256 ) + HERO_X
117+  0000              NORTH			equ	0
118+  0000              EAST			equ	1
119+  0000              SOUTH			equ	2
120+  0000              WEST			equ	3
121+  0000
122+  0000              	; adresy stale
123+  0000              FONTS			equ	$3D00
124+  0000              SCREEN			equ	$4000
125+  0000              SCR2			equ	$4800
126+  0000              MSG_AREA		equ $4888	; linie 96-127
127+  0000              SCR3			equ	$5000
128+  0000              SCREEN_TOP		equ	$5800
129+  0000              SCREEN_ATR		equ	$5800
130+  0000              ATR2			equ	$5900
131+  0000              ATR3			equ	$5A00
132+  0000              ;ATR_MAP_TOP		equ	$5980
133+  0000              ;ATR_MSG_TOP 	equ	$5A00
134+  0000              ATR_TOP			equ	$5B00
135+  0000              PRINTER_BUF		equ $5B00
136+  0000              ATR_BUF			equ	$6000
137+  0000
138+  0000              	; adresy ruchome
139+  0000
140+  0000              HERO_ADR		equ	( ( ( HERO_Y and $18 ) + $40 ) * 256 ) + ( ( HERO_Y and $07 ) * 32 ) + HERO_X
141+  0000
142+  0000              	; ustalenie adresow w zaleznosci od polozenia okien
143+  0000
144+  0000              FOV_ADR			equ	( ( ( FOV_Y and $18 ) + $40 ) * 256 ) + ( ( FOV_Y and $07 ) * 32 ) + FOV_X
145+  0000              W3D_ADR			equ	( ( ( W3D_Y and $18 ) + $40 ) * 256 ) + ( ( W3D_Y and $07 ) * 32 ) + W3D_X
146+  0000              W3D_ATR_ADR		equ	( ( ( ( high W3D_ADR / $08 ) ) and $03 ) or $58 ) * 256 + low W3D_ADR
147+  0000              W3D_ATR_BUF		equ ATR_BUF + ( W3D_ATR_ADR - SCREEN_ATR )
148+  0000
149+  0000
150+  0000              MSG_ADR			equ	SCR2 + ( ( MSG_Y - $08 ) * $20 ) + MSG_X
151+  0000              MSG_LINE1		equ	MSG_ADR
152+  0000              MSG_LINE2		equ	MSG_LINE1 + $20
153+  0000              STS_ADR			equ	SCREEN + ( STS_Y * $20 ) + STS_X
154+  0000              ITM_ADR			equ	SCR2 + ( ITM_Y * $20 ) + ITM_X
155+  0000              ATR3_BUF		equ	$F000
156+  0000              TILES			equ	$8000
157+  0000              GAME_START		equ	$8400
158+  0000
# file closed: const.def
 11   0000              		include	loader.asm
# file opened: loader.asm
  1+  0000              ; ----------------
  2+  0000              ;  Basic Loader
  3+  0000              ; ----------------
  4+  0000              		org	PRINTER_BUF
  5+  5B00              BasicStart:
  6+  5B00 00 0A            db 0, 10            ; Numer linii
  7+  5B02 20 00            dw _b_end - _b_line   ; Dlugosc linii
  8+  5B04              _b_line:
  9+  5B04 FD               db $FD              ; CLEAR
 10+  5B05                  ; "00000" jako tekst, potem $0E i 5 bajtow (format Sinclaira dla 32767)
 11+  5B05 30 30 30 30      db "00000", $0E, 0, 0, $FF, $7F, 0
 11+  5B09 30 0E 00 00
 11+  5B0D FF 7F 00
 12+  5B10 3A               db ":"
 13+  5B11 EF 22 22 AF      db $EF, $22, $22, $AF ; LOAD "" CODE
 14+  5B15 3A               db ":"
 15+  5B16 F9 C0            db $F9, $C0         ; RANDOMIZE USR
 16+  5B18                  ; "32768" jako tekst, potem $0E i 5 bajtow (format Sinclaira dla 32768)
 17+  5B18 30 30 30 30      db "00000", $0E, 0, 0, low CodeStart, high CodeStart, 0
 17+  5B1C 30 0E 00 00
 17+  5B20 50 83 00
 18+  5B23 0D               db $0D              ; Enter
 19+  5B24              _b_end:
 20+  5B24
 21+  5B24                  ; pierwszy blok (BASIC) na tasme
 22+  5B24                  SAVETAP "dng.tap", BASIC, "DUNG", BasicStart, _b_end - BasicStart, 10
 23+  5B24
# file closed: loader.asm
 12   5B24
 13   5B24              		org	TILES
 14   8000
 15   8000              Start:
 16   8000              		include data/tiles.dat
# file opened: tiles.dat
  1+  8000              ; WALL
  2+  8000              wall_tiles
  3+  8000              	; od 1 do 5
  4+  8000 00 77 7F 3F  	db	$00, $77, $7F, $3F, $7F, $7F, $7F, $7F
  4+  8004 7F 7F 7F 7F
  5+  8008 00 FE FF FF  	db	$00, $FE, $FF, $FF, $FE, $FF, $FF, $7A
  5+  800C FE FF FF 7A
  6+  8010 00 2E 7F 7F  	db	$00, $2E, $7F, $7F, $7F, $7F, $7F, $3F
  6+  8014 7F 7F 7F 3F
  7+  8018 00 7E FF FF  	db	$00, $7E, $FF, $FF, $FE, $DF, $FF, $7F
  7+  801C FE DF FF 7F
  8+  8020
  9+  8020 00 00 00 00  	db	$00, $00, $00, $00, $00, $C0, $F0, $FC
  9+  8024 00 C0 F0 FC
 10+  8028 FF DF EF FF  	db	$FF, $DF, $EF, $FF, $FF, $7F, $8F, $E9
 10+  802C FF 7F 8F E9
 11+  8030 EF EF EF EF  	db	$EF, $EF, $EF, $EF, $EF, $EF, $EF, $EF
 11+  8034 EF EF EF EF
 12+  8038 29 FF FF FE  	db	$29, $FF, $FF, $FE, $FF, $FF, $FF, $FF
 12+  803C FF FF FF FF
 13+  8040
 14+  8040 FF F8 8F 6F  	db	$FF, $F8, $8F, $6F, $EF, $EF, $EF, $EF
 14+  8044 EF EF EF EF
 15+  8048 EF EC F0 C0  	db	$EF, $EC, $F0, $C0, $00, $00, $00, $00
 15+  804C 00 00 00 00
 16+  8050 00 00 00 00  	db	$00, $00, $00, $00, $00, $01, $07, $1F
 16+  8054 00 01 07 1F
 17+  8058 7F 7F 7F 7F  	db	$7F, $7F, $7F, $7F, $7F, $7F, $78, $4B
 17+  805C 7F 7F 78 4B
 18+  8060
 19+  8060 7B 7B 7B 7B  	db	$7B, $7B, $7B, $7B, $7B, $7B, $7B, $7B
 19+  8064 7B 7B 7B 7B
 20+  8068 00 7F 7F 7F  	db	$00, $7F, $7F, $7F, $7F, $7F, $7F, $7F
 20+  806C 7F 7F 7F 7F
 21+  8070 7F 0F 78 7B  	db	$7F, $0F, $78, $7B, $7B, $7B, $7B, $7B
 21+  8074 7B 7B 7B 7B
 22+  8078 7B 1B 07 01  	db	$7B, $1B, $07, $01, $00, $00, $00, $00
 22+  807C 00 00 00 00
 23+  8080
 24+  8080              ;	16
 25+  8080 00 40 70 78  	db	$00, $40, $70, $78, $7B, $7B, $7B, $7B
 25+  8084 7B 7B 7B 7B
 26+  8088 00 00 00 00  	db	$00, $00, $00, $00, $00, $C0, $F0, $F4
 26+  808C 00 C0 F0 F4
 27+  8090 1B 79 7F 6F  	db	$1B, $79, $7F, $6F, $7F, $7F, $7F, $3F
 27+  8094 7F 7F 7F 3F
 28+  8098 F7 F7 9F 79  	db	$F7, $F7, $9F, $79, $7F, $7F, $7F, $7F
 28+  809C 7F 7F 7F 7F
 29+  80A0
 30+  80A0 09 7B 7B 7B  	db	$09, $7B, $7B, $7B, $7B, $5B, $7B, $79
 30+  80A4 7B 5B 7B 79
 31+  80A8 4A F7 F7 F7  	db	$4A, $F7, $F7, $F7, $F7, $F9, $9F, $FF
 31+  80AC F7 F9 9F FF
 32+  80B0 1F 7F 7F 7F  	db	$1F, $7F, $7F, $7F, $7F, $7C, $70, $40
 32+  80B4 7F 7C 70 40
 33+  80B8 7F 7C 70 40  	db	$7F, $7C, $70, $40, $00, $00, $00, $00
 33+  80BC 00 00 00 00
 34+  80C0
 35+  80C0 00 00 00 00  	db	$00, $00, $00, $00, $00, $01, $07, $17
 35+  80C4 00 01 07 17
 36+  80C8 00 01 07 0F  	db	$00, $01, $07, $0F, $6F, $EF, $EF, $EF
 36+  80CC 6F EF EF EF
 37+  80D0 77 77 7C 4F  	db	$77, $77, $7C, $4F, $7F, $7F, $7F, $7F
 37+  80D4 7F 7F 7F 7F
 38+  80D8 FC CF FF 7F  	db	$FC, $CF, $FF, $7F, $7F, $7F, $7F, $7F
 38+  80DC 7F 7F 7F 7F
 39+  80E0
 40+  80E0 29 77 77 77  	db	$29, $77, $77, $77, $77, $4F, $7C, $7F
 40+  80E4 77 4F 7C 7F
 41+  80E8 48 FF FF FE  	db	$48, $FF, $FF, $FE, $FF, $FF, $FF, $CF
 41+  80EC FF FF FF CF
 42+  80F0 7E 1E 06 00  	db	$7E, $1E, $06, $00, $00, $00, $00, $00
 42+  80F4 00 00 00 00
 43+  80F8 FC FF FF FF  	db	$FC, $FF, $FF, $FF, $7F, $17, $07, $01
 43+  80FC 7F 17 07 01
 44+  8100
 45+  8100              ;	32
 46+  8100 00 3F 7F 7F  	db	$00, $3F, $7F, $7F, $00, $3B, $7B, $6B
 46+  8104 00 3B 7B 6B
 47+  8108 00 7D 7F 7F  	db	$00, $7D, $7F, $7F, $00, $E7, $F7, $F7
 47+  810C 00 E7 F7 F7
 48+  8110 00 40 70 7C  	db	$00, $40, $70, $7C, $2F, $6B, $6E, $7F
 48+  8114 2F 6B 6E 7F
 49+  8118 15 7F 6E 6B  	db	$15, $7F, $6E, $6B, $2F, $7C, $70, $40
 49+  811C 2F 7C 70 40
 50+  8120
 51+  8120 00 01 07 1F  	db	$00, $01, $07, $1F, $7A, $6B, $3B, $7F
 51+  8124 7A 6B 3B 7F
 52+  8128 5A 7F 3B 6B  	db	$5A, $7F, $3B, $6B, $7A, $1F, $07, $01
 52+  812C 7A 1F 07 01
 53+  8130 00 00 00 00  	db	$00, $00, $00, $00, $00, $6B, $00, $6D
 53+  8134 00 6B 00 6D
 54+  8138 00 5B 00 6D  	db	$00, $5B, $00, $6D, $00, $00, $00, $00
 54+  813C 00 00 00 00
 55+  8140
 56+  8140 00 00 00 00  	db	$00, $00, $00, $00, $00, $01, $07, $1B
 56+  8144 00 01 07 1B
 57+  8148 7F 1B 07 01  	db	$7F, $1B, $07, $01, $00, $00, $00, $00
 57+  814C 00 00 00 00
 58+  8150 00 00 00 00  	db	$00, $00, $00, $00, $00, $40, $70, $6C
 58+  8154 00 40 70 6C
 59+  8158 7F 6C 70 40  	db	$7F, $6C, $70, $40, $00, $00, $00, $00
 59+  815C 00 00 00 00
 60+  8160
 61+  8160 BD EF 00 00  	db	$BD, $EF, $00, $00, $00, $00, $00, $00
 61+  8164 00 00 00 00
 62+  8168 00 7E 7E 66  	db	$00, $7E, $7E, $66, $66, $7E, $7E, $00
 62+  816C 66 7E 7E 00
 63+  8170 00 7F 7F 00  	db	$00, $7F, $7F, $00, $7F, $7F, $7F, $00
 63+  8174 7F 7F 7F 00
 64+  8178 37 37 37 17  	db	$37, $37, $37, $17, $17, $17, $37, $37
 64+  817C 17 17 37 37
 65+  8180
 66+  8180              ;	48
 67+  8180 7E 7E 7E 7E  	db	$7E, $7E, $7E, $7E, $7E, $7E, $60, $7E
 67+  8184 7E 7E 60 7E
 68+  8188 7E 7E 7E 7E  	db	$7E, $7E, $7E, $7E, $7E, $7E, $7E, $7E
 68+  818C 7E 7E 7E 7E
 69+  8190 77 77 77 77  	db	$77, $77, $77, $77, $77, $77, $77, $77
 69+  8194 77 77 77 77
 70+  8198 00 3F 3F 33  	db	$00, $3F, $3F, #33, $33, $3F, $3F, $00
 70+  819C 33 3F 3F 00
 71+  81A0              ;	52
 72+  81A0 00 00 00 00  	db	$00, $00, $00, $00, $00, $01, $07, $14
 72+  81A4 00 01 07 14
 73+  81A8 00 01 07 0F  	db	$00, $01, $07, $0F, $6F, $EF, $2F, $EF
 73+  81AC 6F EF 2F EF
 74+  81B0 77 76 76 72  	db	$77, $76, $76, $72, $76, $76, $76, $76
 74+  81B4 76 76 76 76
 75+  81B8 EC 6F 6F 6F  	db	$EC, $6F, $6F, $6F, $6F, $6F, $4F, $6F
 75+  81BC 6F 6F 4F 6F
 76+  81C0
 77+  81C0 76 76 76 76  	db	$76, $76, $76, $76, $76, $72, $76, $77
 77+  81C4 76 72 76 77
 78+  81C8 6F 6F 6F 6E  	db	$6F, $6F, $6F, $6E, $6F, $6F, $6F, $EF
 78+  81CC 6F 6F 6F EF
 79+  81D0 74 17 07 01  	db	$74, $17, $07, $01, $00, $00, $00, $00
 79+  81D4 00 00 00 00
 80+  81D8 EC 2F EF EF  	db	$EC, $2F, $EF, $EF, $6F, $0F, $07, $01
 80+  81DC 6F 0F 07 01
 81+  81E0
 82+  81E0 00 40 70 78  	db	$00, $40, $70, $78, $7B, $7B, $7A, $7B
 82+  81E4 7B 7B 7A 7B
 83+  81E8 00 00 00 00  	db	$00, $00, $00, $00, $00, $C0, $70, $94
 83+  81EC 00 C0 70 94
 84+  81F0 3B 79 7B 7B  	db	$3B, $79, $7B, $7B, $7B, $7B, $7B, $7B
 84+  81F4 7B 7B 7B 7B
 85+  81F8 F7 37 37 37  	db	$F7, $37, $37, $37, $37, $37, $37, $27
 85+  81FC 37 37 37 27
 86+  8200
 87+  8200 7B 7B 7B 7B  	db	$7B, $7B, $7B, $7B, $7B, $7B, $79, $7B
 87+  8204 7B 7B 79 7B
 88+  8208 37 37 37 37  	db	$37, $37, $37, $37, $37, $37, $37, $F7
 88+  820C 37 37 37 F7
 89+  8210 1B 7A 7B 7B  	db	$1B, $7A, $7B, $7B, $7B, $78, $70, $40
 89+  8214 7B 78 70 40
 90+  8218 97 74 F0 C0  	db	$97, $74, $F0, $C0, $00, $00, $00, $00
 90+  821C 00 00 00 00
 91+  8220              ;	68
 92+  8220 00 6E 6E 6E  	db	$00, $6E, $6E, $6E, $00, $3E, $7E, $7E
 92+  8224 00 3E 7E 7E
 93+  8228 00 BD BF BF  	db	$00, $BD, $BF, $BF, $80, $B7, $B7, $B7
 93+  822C 80 B7 B7 B7
 94+  8230 00 FF E1 7F  	db	$00, $FF, $E1, $7F, $FF, $DB, $DB, $DB
 94+  8234 FF DB DB DB
 95+  8238 DA DB DB DB  	db	$DA, $DB, $DB, $DB, $FF, $EF, $E1, $FF
 95+  823C FF EF E1 FF
 96+  8240              ;	72
 97+  8240 00 00 00 00  	db	$00, $00, $00, $00, $00, $5D, $5D, $5D
 97+  8244 00 5D 5D 5D
 98+  8248 59 5D 5D 5D  	db	$59, $5D, $5D, $5D, $00, $00, $00, $00
 98+  824C 00 00 00 00
 99+  8250              ;	74
100+  8250 00 00 00...  	ds	8
101+  8258
102+  8258              ;	75
103+  8258 00 00 00 00  	db	$00, $00, $00, $00, $00, $00, $00, $00
103+  825C 00 00 00 00
104+  8260
105+  8260              ;	76
106+  8260 3C 42 B1 B1  	db	$3C, $42, $B1, $B1, $81, $85, $42, $3C
106+  8264 81 85 42 3C
107+  8268 38 64 C1 E3  	db	$38, $64, $C1, $E3, $BF, $9C, $40, $34
107+  826C BF 9C 40 34
108+  8270 00 FC FE 87  	db	$00, $FC, $FE, $87, $03, $0C, $1C, $F8
108+  8274 03 0C 1C F8
109+  8278 38 74 E1 43  	db	$38, $74, $E1, $43, $07, $9E, $C0, $3F
109+  827C 07 9E C0 3F
110+  8280
111+  8280 01 F2 FC 8C  	db	$01, $F2, $FC, $8C, $26, $72, $F1, $E0
111+  8284 26 72 F1 E0
112+  8288 82 4C 38 30  	db	$82, $4C, $38, $30, $66, $6F, $67, $63
112+  828C 66 6F 67 63
113+  8290 71 39 1D 4D  	db	$71, $39, $1D, $4D, $85, $C5, $E1, $72
113+  8294 85 C5 E1 72
114+  8298 26 1C 38 76  	db	$26, $1C, $38, $76, $67, $63, $61, $71
114+  829C 67 63 61 71
115+  82A0
116+  82A0 38 18 4D 8C  	db	$38, $18, $4D, $8C, $8C, $C1, $72, $3C
116+  82A4 8C C1 72 3C
117+  82A8              ;	85
118+  82A8 00 00 00...  	ds	24
119+  82C0
120+  82C0              ;	88
121+  82C0 00 00 07 05  	db	$00, $00, $07, $05, $0F, $18, $30, $60
121+  82C4 0F 18 30 60
122+  82C8 04 08 10 00  	db	$04, $08, $10, $00, $00, $00, $00, $00
122+  82CC 00 00 00 00
123+  82D0 00 0A 04 0A  	db	$00, $0A, $04, $0A, $10, $20, $40, $80
123+  82D4 10 20 40 80
124+  82D8 00 1C 3E 7F  	db	$00, $1C, $3E, $7F, $49, $77, $36, $36
124+  82DC 49 77 36 36
125+  82E0
126+  82E0              ;	92 Pirat
127+  82E0 00 03 0F 3C  	db	$00, $03, $0F, $3C, $5B, $AE, $7D, $3D
127+  82E4 5B AE 7D 3D
128+  82E8 00 C0 F0 40  	db	$00, $C0, $F0, $40, $F8, $20, $D8, $40
128+  82EC F8 20 D8 40
129+  82F0 56 0B 04 0A  	db	$56, $0B, $04, $0A, $25, $42, $A5, $D0
129+  82F4 25 42 A5 D0
130+  82F8 3E FC C0 A8  	db	$3E, $FC, $C0, $A8, $44, $FA, $54, $A9
130+  82FC 44 FA 54 A9
131+  8300
132+  8300 03 07 0F 1D  	db	$03, $07, $0F, $1D, $1E, $2D, $08, $04
132+  8304 1E 2D 08 04
133+  8308 F8 70 F8 72  	db	$F8, $70, $F8, $72, $7A, $72, $7A, $76
133+  830C 7A 72 7A 76
134+  8310 24 40 00 40  	db	$24, $40, $00, $40, $A0, $40, $80, $40
134+  8314 A0 40 80 40
135+  8318 04 08 0C 0C  	db	$04, $08, $0C, $0C, $0C, $06, $16, $0C
135+  831C 0C 06 16 0C
136+  8320
137+  8320 F6 76 F0 60  	db	$F6, $76, $F0, $60, $05, $2A, $5F, $3B
137+  8324 05 2A 5F 3B
138+  8328 80 C0 80 40  	db	$80, $C0, $80, $40, $00, $80, $40, $80
138+  832C 00 80 40 80
139+  8330 79 51 A9 00  	db	$79, $51, $A9, $00, $28, $78, $70, $60
139+  8334 28 78 70 60
140+  8338 C0 A0 C0 00  	db	$C0, $A0, $C0, $00, $60, $30, $70, $20
140+  833C 60 30 70 20
141+  8340
142+  8340 30 18 10 18  	db	$30, $18, $10, $18, $30, $F8, $DC, $00
142+  8344 30 F8 DC 00
143+  8348 30 30 38 2C  	db	$30, $30, $38, $2C, $77, $2B, $00, $00
143+  834C 77 2B 00 00
144+  8350
145+  8350
# file closed: tiles.dat
 17   8350
 18   8350              ; ================
 19   8350              ;  Code Start
 20   8350              ; ================
 21   8350              CodeStart:
 22   8350 F3           		di
 23   8351 08           		ex	af,af'
 24   8352 D9           		exx
 25   8353 F5           		push	af
 26   8354 C5           		push	bc
 27   8355 D5           		push	de
 28   8356 E5           		push	hl
 29   8357 D9           		exx
 30   8358 08           		ex	af,af'
 31   8359
 32   8359              		include	init.asm
# file opened: init.asm
  1+  8359              ; ==============
  2+  8359              ;  Init
  3+  8359              ; ==============
  4+  8359
  5+  8359              		BORDER_COLOR BLACK
  5+  8359 3E 00       >		ld	a,BLACK
  5+  835B D3 FE       >		out	(0FEh),a
  6+  835D              		SET_COLOR	OFF_ATR, ATR_TOP, 24
  6+  835D 11 00 00    >		ld de, OFF_ATR * 256 + OFF_ATR
  6+  8360 21 00 00    >		ld	hl,0000h
  6+  8363 39          >		add	hl,sp			; save SP
  6+  8364 31 00 5B    >		ld	sp,ATR_TOP
  6+  8367 06 18       >		ld	b,24
  6+  8369             >.colour_block:
  6+  8369             >	REPT	16				; zeruje 32 bajty na obrot
  6+  8369 D5          >		push	de
  6+  836A D5          >		push	de
  6+  836B D5          >		push	de
  6+  836C D5          >		push	de
  6+  836D D5          >		push	de
  6+  836E D5          >		push	de
  6+  836F D5          >		push	de
  6+  8370 D5          >		push	de
  6+  8371 D5          >		push	de
  6+  8372 D5          >		push	de
  6+  8373 D5          >		push	de
  6+  8374 D5          >		push	de
  6+  8375 D5          >		push	de
  6+  8376 D5          >		push	de
  6+  8377 D5          >		push	de
  6+  8378 D5          >		push	de
  6+  8379             >	ENDR
  6+  8379 10 EE       >		djnz	.colour_block
  6+  837B F9          >		ld	sp,hl			; restore SP
  7+  837C              		CLEAR_LINES SCREEN_TOP, 192
  7+  837C 11 00 00    >		ld	de,0000h
  7+  837F 21 00 00    >		ld	hl,0000h
  7+  8382 39          >		add	hl,sp			; save SP
  7+  8383 31 00 58    >		ld	sp,SCREEN_TOP	; czysci od gory
  7+  8386 06 C0       >		ld	b,192		; 192 = 6144 / ( 16 x 2 )
  7+  8388             >.clear_block:
  7+  8388             >	REPT	16				; zeruje 32 bajty na obrot
  7+  8388 D5          >		push	de
  7+  8389 D5          >		push	de
  7+  838A D5          >		push	de
  7+  838B D5          >		push	de
  7+  838C D5          >		push	de
  7+  838D D5          >		push	de
  7+  838E D5          >		push	de
  7+  838F D5          >		push	de
  7+  8390 D5          >		push	de
  7+  8391 D5          >		push	de
  7+  8392 D5          >		push	de
  7+  8393 D5          >		push	de
  7+  8394 D5          >		push	de
  7+  8395 D5          >		push	de
  7+  8396 D5          >		push	de
  7+  8397 D5          >		push	de
  7+  8398             >	ENDR
  7+  8398 10 EE       >		djnz	.clear_block
  7+  839A F9          >		ld	sp,hl			; restore SP
  8+  839B
  9+  839B              ; ------ Oblicza rozmiar mapy --------
 10+  839B 2A 72 93     		ld	hl,(map.width)
 11+  839E 44           		ld	b,h
 12+  839F 4D           		ld	c,l
 13+  83A0 CD 01 93     		call	mul8
 14+  83A3 22 74 93     		ld	(map.size),hl
 15+  83A6
 16+  83A6              ; ------ Czyta MAPe i inicjalizuje obiekty ( drzwi i uktyte przejscia ) ------
 17+  83A6 DD 21 13 94  		ld	ix,doors
 18+  83AA FD 21 33 94  		ld	iy,passages
 19+  83AE 21 75 95     		ld	hl,MAP
 20+  83B1 11 00 00     		ld	de,0				; offset obiektow w bajtach
 21+  83B4 ED 4B 74 93  		ld	bc,(map.size)
 22+  83B8 D9           		exx
 23+  83B9 21 53 94     		ld	hl,m_walls
 24+  83BC D9           		exx
 25+  83BD              _next_mapchar:
 26+  83BD 7E           		ld	a,(hl)
 27+  83BE FE 2B        		cp	C_DOOR_CHAR
 28+  83C0 28 24        		jr	z,_init_door
 29+  83C2
 30+  83C2 FE 2F        		cp	O_DOOR_CHAR
 31+  83C4 28 20        		jr	z,_init_door
 32+  83C6
 33+  83C6 FE 4D        		cp	M_WALL_CHAR
 34+  83C8 20 0A        		jr	nz,_maybe_psg
 35+  83CA
 36+  83CA              		; --- przesuwane sciany ---
 37+  83CA D5           		push	de
 38+  83CB D9           		exx
 39+  83CC D1           		pop		de
 40+  83CD 73           		ld	(hl),e
 41+  83CE 23           		inc	hl
 42+  83CF 72           		ld	(hl),d
 43+  83D0 23           		inc	hl
 44+  83D1 D9           		exx
 45+  83D2 36 23        		ld	(hl),WALL_CHAR
 46+  83D4              _maybe_psg
 47+  83D4 FE 3D        		cp	PASSAGE_CHAR
 48+  83D6 20 18        		jr	nz,_inc_counters
 49+  83D8
 50+  83D8              		; --- ukryte przejscia ----
 51+  83D8 FD 73 00     		ld	(iy),e
 52+  83DB FD 72 01     		ld	(iy+1),d
 53+  83DE FD 23        		inc	iy
 54+  83E0 FD 23        		inc	iy
 55+  83E2 36 23        		ld	(hl),WALL_CHAR
 56+  83E4 18 0A        		jr	_inc_counters
 57+  83E6              		; ---	drzwi   ---
 58+  83E6              		; 0 - MAP Ofs lsb, 1 - msb, 2 - open(0), close(1)
 59+  83E6              _init_door:
 60+  83E6 DD 73 00     		ld	(ix),e				; offset obiektu lsb
 61+  83E9 DD 72 01     		ld	(ix+1),d			; msb
 62+  83EC DD 23        		inc	ix
 63+  83EE DD 23        		inc	ix
 64+  83F0              		; -----------------
 65+  83F0              _inc_counters:
 66+  83F0 23           		inc	hl
 67+  83F1 13           		inc	de
 68+  83F2 0B           		dec	bc
 69+  83F3 78           		ld	a,b
 70+  83F4 B1           		or	c
 71+  83F5 20 C6        		jr	nz,_next_mapchar
 72+  83F7
 73+  83F7              ; Oblicza i wypelnia tabele neighbor_offs
 74+  83F7 DD 21 84 93  		ld	ix,neighbor_offs
 75+  83FB 3A 72 93     		ld	a,(map.width)
 76+  83FE DD 77 02     		ld	(ix+2),a
 77+  8401 ED 44        		neg
 78+  8403 DD 77 00     		ld	(ix),a
 79+  8406
 80+  8406              ; -------------------------------------------------------
 81+  8406              ; Oblicza i wypelnia wynikami tabele offsetow
 82+  8406              ; potencjalnie widzialnych Tiles - fov_offsets
 83+  8406              ; W zaleznosci od kierunku patrzenia kazde tile w polu widzenia
 84+  8406              ; dostanie swoj offset wzgledem Hero
 85+  8406              ; -------------------------------------------------------
 86+  8406              calc_fov:
 87+  8406              		; --- EAST & NORTH ---
 88+  8406 FD 21 67 8C  		ld	iy,fov_n + 4
 89+  840A DD 21 8B 8C  		ld	ix,fov_e + 4
 90+  840E 06 04        		ld	b,4			; glebokosc fov
 91+  8410 16 00        		ld	d,0
 92+  8412 1E 0A        		ld	e,10			; offset adresu od 5 do 2
 93+  8414 3A 72 93     		ld	a,(map.width)
 94+  8417 4F           		ld	c,a
 95+  8418              _nxtrow:
 96+  8418 80           		add	a,b
 97+  8419 DD 77 02     		ld	(ix+2),a
 98+  841C 78           		ld	a,b
 99+  841D 91           		sub	c
100+  841E DD 77 FE     		ld	(ix-2),a
101+  8421 DD 36 FF FF  		ld	(ix-1),0FFh
102+  8425 DD 70 00     		ld	(ix),b
103+  8428
104+  8428 CD 01 93     		call	mul8
105+  842B 7C           		ld	a,h
106+  842C 2F           		cpl
107+  842D 67           		ld	h,a
108+  842E 7D           		ld	a,l
109+  842F 2F           		cpl
110+  8430 6F           		ld	l,a
111+  8431 FD 75 FE     		ld	(iy-2),l
112+  8434 FD 74 FF     		ld	(iy-1),h
113+  8437 23           		inc	hl
114+  8438
115+  8438 FD 75 00     		ld	(iy),l
116+  843B FD 74 01     		ld	(iy+1),h
117+  843E 23           		inc	hl
118+  843F FD 75 02     		ld	(iy+2),l
119+  8442 FD 74 03     		ld	(iy+3),h
120+  8445
121+  8445 78           		ld	a,b
122+  8446 FE 03        		cp	3
123+  8448 38 2C        		jr	c,_ommit1
124+  844A DD 7E 02     		ld	a,(ix+2)
125+  844D 81           		add	a,c
126+  844E DD 77 04     		ld	(ix+4),a
127+  8451 DD 7E FE     		ld	a,(ix-2)
128+  8454 91           		sub	c
129+  8455 DD 77 FC     		ld	(ix-4),a
130+  8458 DD 36 FD FF  		ld	(ix-3),0FFh
131+  845C
132+  845C FD 6E FE     		ld	l,(iy-2)
133+  845F FD 66 FF     		ld	h,(iy-1)
134+  8462 2B           		dec	hl
135+  8463 FD 75 FC     		ld	(iy-4),l
136+  8466 FD 74 FD     		ld	(iy-3),h
137+  8469 FD 6E 02     		ld	l,(iy+2)
138+  846C FD 66 03     		ld	h,(iy+3)
139+  846F 23           		inc	hl
140+  8470 FD 75 04     		ld	(iy+4),l
141+  8473 FD 74 05     		ld	(iy+5),h
142+  8476              _ommit1:
143+  8476 DD 19        		add	ix,de
144+  8478 FD 19        		add	iy,de
145+  847A 1D           		dec	e
146+  847B 1D           		dec	e
147+  847C 79           		ld	a,c
148+  847D 10 99        		djnz	_nxtrow
149+  847F
150+  847F DD 77 02     		ld	(ix+2),a
151+  8482 ED 44        		neg
152+  8484 DD 77 00     		ld	(ix),a
153+  8487 DD 36 01 FF  		ld	(ix+1),0FFh
154+  848B FD 36 00 FF  		ld	(iy),-1
155+  848F FD 36 01 FF  		ld	(iy+1),0FFh
156+  8493 FD 36 02 01  		ld	(iy+2),1
157+  8497              		;--- WEST & SOUTH ---
158+  8497 21 63 8C     		ld	hl,fov_n
159+  849A 11 AB 8C     		ld	de,fov_s
160+  849D 06 24        		ld	b,36
161+  849F C5           _nxt1:	push	bc
162+  84A0 7E           		ld	a,(hl)
163+  84A1 2F           		cpl
164+  84A2 4F           		ld	c,a
165+  84A3 23           		inc	hl
166+  84A4 7E           		ld	a,(hl)
167+  84A5 2F           		cpl
168+  84A6 47           		ld	b,a
169+  84A7 03           		inc	bc
170+  84A8 79           		ld	a,c
171+  84A9 12           		ld	(de),a
172+  84AA 13           		inc	de
173+  84AB 78           		ld	a,b
174+  84AC 12           		ld	(de),a
175+  84AD 23           		inc	hl
176+  84AE 13           		inc	de
177+  84AF C1           		pop	bc
178+  84B0 10 ED        		djnz	_nxt1
179+  84B2
180+  84B2              ; Wbija biezace statystyki hero do stringow stat_info
181+  84B2 CD 01 88     		call	update_info_strings
182+  84B5 CD 3F 88     		call	print_info
183+  84B8
184+  84B8              ; Drukuje ramki
185+  84B8 CD 1A 8A     		call	print_frames
186+  84BB
187+  84BB              		; kolory okna powiadomien
188+  84BB 3E 07        		ld	a,MSG_ATR
189+  84BD 06 02        		ld	b,MSG_HEIGHT
190+  84BF 0E 11        		ld	c,MSG_WIDTH
191+  84C1 11 00 09     		ld	de,MSG_YX
192+  84C4 CD B4 89     		call set_atr_block
193+  84C7
194+  84C7              		; kolory ramki mapy
195+  84C7 3E 04        		ld	a,FOV_FRAME_ATR
196+  84C9 06 0B        		ld	b,FOV_FRAME_H
197+  84CB 0E 0B        		ld	c,FOV_FRAME_W
198+  84CD 11 03 0C     		ld	de,FOV_FRAME_YX
199+  84D0 CD B4 89     		call set_atr_block
200+  84D3
201+  84D3              ;		; kolory ramki	3D
202+  84D3 3E 03        		ld	a,W3D_FRAME_ATR
203+  84D5 06 08        		ld	b,W3D_FRAME_H
204+  84D7 0E 0B        		ld	c,W3D_FRAME_W
205+  84D9 11 03 00     		ld	de,W3D_FRAME_YX
206+  84DC CD B4 89     		call set_atr_block
207+  84DF
208+  84DF              		; kolory okna mapy
209+  84DF 3E 02        		ld	a,FOV_ATR
210+  84E1 06 09        		ld	b,FOV_HEIGHT
211+  84E3 0E 09        		ld	c,FOV_WIDTH
212+  84E5 11 04 0D     		ld	de,FOV_YX
213+  84E8 CD B4 89     		call set_atr_block
214+  84EB
215+  84EB              		; kolory okna statystyk
216+  84EB 3E 06        		ld	a,STS_ATR
217+  84ED 06 07        		ld	b,STS_HEIGHT
218+  84EF 0E 09        		ld	c,STS_WIDTH
219+  84F1 11 17 01     		ld	de,STS_YX
220+  84F4 CD B4 89     		call set_atr_block
221+  84F7
222+  84F7              		; kolory okna przedmiotow
223+  84F7 3E 05        		ld	a,ITM_ATR
224+  84F9 06 03        		ld	b,ITM_HEIGHT
225+  84FB 0E 09        		ld	c,ITM_WIDTH
226+  84FD 11 17 09     		ld	de,ITM_YX
227+  8500 CD B4 89     		call set_atr_block
228+  8503
229+  8503              		;kolor Hero w oknie mapy
230+  8503 3E 06        		ld	a, HERO_ATR
231+  8505 11 08 11     		ld	de,HERO_YX
232+  8508 0E 01        		ld	c,1					; jeden znak
233+  850A CD 9A 89     		call	set_atr_line
234+  850D
235+  850D
236+  850D              _restart
237+  850D              ; Na podstawie Y,X oblicza offset hero wzgledem poczatku map'y
238+  850D              ;		ld	a,(hero.mapY)
239+  850D 3E 02        		ld	a,HERO_MAP_Y
240+  850F 4F           		ld	c,a
241+  8510 3A 72 93     		ld	a,(map.width)
242+  8513 47           		ld	b,a
243+  8514 CD 01 93     		call	mul8
244+  8517              ;		ld	a,(hero.mapX)
245+  8517 3E 02        		ld	a,HERO_MAP_X
246+  8519 16 00        		ld	d,0
247+  851B 5F           		ld	e,a
248+  851C 19           		add	hl,de
249+  851D 22 77 93     		ld	(hero.offset),hl
250+  8520
# file closed: init.asm
 33   8520
 34   8520              ; ===============  M A I N    L O O P =================
 35   8520
 36   8520              refresh:
 37   8520              		; czyszczenie okna fov
 38   8520 21 A4 48     		ld	hl,FOV_ADR
 39   8523 06 09        		ld	b,FOV_HEIGHT
 40   8525 CD 48 89     		call	clear_txtlines
 41   8528
 42   8528              		; czyszczenie okna 3d
 43   8528 21 24 40     		ld	hl,W3D_ADR
 44   852B 06 06        		ld	b,W3D_HEIGHT
 45   852D CD 48 89     		call	clear_txtlines
 46   8530
 47   8530              		; "wygaszone" okno 3D przy rysowaniu
 48   8530 3E 00        		ld	a,OFF_ATR
 49   8532 06 06        		ld	b,W3D_HEIGHT
 50   8534 0E 09        		ld	c,W3D_WIDTH
 51   8536 11 04 01     		ld	de, W3D_YX
 52   8539 CD B4 89     		call set_atr_block
 53   853C
 54   853C CD D9 87     		call	check_flags
 55   853F
 56   853F              		; -----------------------
 57   853F              		; Pole widzenia na ekran
 58   853F              		; -----------------------
 59   853F CD E7 8A     		call	field_of_view		; fov.asm
 60   8542
 61   8542              		; -----------------------
 62   8542              		;  "widzialnosc" okna 3D
 63   8542              		; -----------------------
 64   8542 CD D7 89     		call	atr_buff_to_atr
 65   8545
 66   8545              		; -----------------
 67   8545              		; Hero na ekran	fov
 68   8545              		; -----------------
 69   8545 21 80 93     		ld	hl,hero_i				; ikona hero
 70   8548 3A 76 93     		ld	a,(hero.direction)		; w zaleznosci
 71   854B 06 00        		ld	b,0						; od kierunku
 72   854D 4F           		ld	c,a						; i zwrotu
 73   854E 09           		add	hl,bc					; ^ > v <
 74   854F 7E           		ld	a,(hl)
 75   8550 11 28 50     		ld	de,HERO_ADR
 76   8553 CD B9 88     		call	pchar
 77   8556
 78   8556              wait_release:
 79   8556 CD 4A 93     		call	scan_keyboard
 80   8559 B7           		or	a
 81   855A 20 FA        		jr	nz,wait_release
 82   855C
 83   855C              key_press:
 84   855C CD 4A 93     		call	scan_keyboard
 85   855F
 86   855F FE 00        		cp	0
 87   8561 CA 5C 85     		jp	z,key_press
 88   8564 FE 01        		cp	1
 89   8566 CA A9 86     		jp	z,move			; bit 0: I
 90   8569 FE 02        		cp	2
 91   856B CA 51 86     		jp	z,trn_r			; bit 1: L
 92   856E FE 04        		cp	4
 93   8570 CA 84 85     		jp	z,look_down		; bit 2: K
 94   8573 FE 08        		cp	8
 95   8575 CA 63 86     		jp	z,trn_l			; bit 3: J
 96   8578 FE 10        		cp	16
 97   857A CA B4 85     		jp	z,look_ahead	; bit 4: O
 98   857D FE 20        		cp	32
 99   857F CA DE 85     		jp	z,push_it		; bit 5: U
100   8582
101   8582
102   8582 18 D8        		jr	key_press
103   8584              ; ----------------------------------------------------
104   8584              ; W zaleznosci od tego co pod nogami deleguje akcje
105   8584              ; ----------------------------------------------------
106   8584              look_down:
107   8584 CD BD 89     		call	message_area_clear
108   8587              		PRINT_STR	MSG_LINE1 + 2, msg_floor
108   8587 11 22 48    >		ld	de,MSG_LINE1 + 2
108   858A 01 F2 94    >		ld	bc,msg_floor
108   858D CD 33 89    >		call	pstring
109   8590 CD 20 87     		call	search_floor
110   8593 79           		ld	a,c
111   8594 FE 7E        		cp	KEY_CHAR
112   8596 CA 3E 87     		jp	z,take_key
113   8599
114   8599 FE 28        		cp	WEAPON_CHAR
115   859B CA 55 87     		jp	z,take_weapon
116   859E
117   859E FE 5B        		cp	ARMOUR_CHAR
118   85A0 CA 75 87     		jp	z,take_armour
119   85A3
120   85A3 FE 50        		cp	PORTAL_CHAR
121   85A5 CA 78 88     		jp	z,teleport
122   85A8
123   85A8              		; jesli nic nie ma
124   85A8              		PRINT_STR	MSG_LINE2 + 2, msg_dust
124   85A8 11 42 48    >		ld	de,MSG_LINE2 + 2
124   85AB 01 00 95    >		ld	bc,msg_dust
124   85AE CD 33 89    >		call	pstring
125   85B1 C3 56 85     		jp wait_release
126   85B4
127   85B4              ; ----------------------------------------------------
128   85B4              ; W zaleznosci od tego co przed oczami deleguje akcje
129   85B4              ; ----------------------------------------------------
130   85B4              look_ahead:
131   85B4 CD BD 89     		call	message_area_clear
132   85B7 CD CA 86     		call	right_before
133   85BA FE 2B        		cp	C_DOOR_CHAR
134   85BC CA 75 86     		jp	z,move_door
135   85BF
136   85BF FE 2F        		cp	O_DOOR_CHAR
137   85C1 CA 75 86     		jp	z,move_door
138   85C4
139   85C4 FE 26        		cp	FIGURE_CHAR
140   85C6 C2 E6 86     		jp	nz,search
141   85C9
142   85C9              		PRINT_STR	MSG_LINE1 + 1, msg_figure1
142   85C9 11 21 48    >		ld	de,MSG_LINE1 + 1
142   85CC 01 0E 95    >		ld	bc,msg_figure1
142   85CF CD 33 89    >		call	pstring
143   85D2              		PRINT_STR	MSG_LINE2 + 4, msg_figure2
143   85D2 11 44 48    >		ld	de,MSG_LINE2 + 4
143   85D5 01 1E 95    >		ld	bc,msg_figure2
143   85D8 CD 33 89    >		call	pstring
144   85DB C3 56 85     		jp	wait_release
145   85DE
146   85DE              ; ----------------------------------------------------
147   85DE              ; W zaleznosci od tego co przed oczami deleguje akcje
148   85DE              ; ----------------------------------------------------
149   85DE              push_it:
150   85DE CD BD 89     		call	message_area_clear
151   85E1 CD CA 86     		call	right_before
152   85E4
153   85E4 FE 26        		cp	FIGURE_CHAR
154   85E6 CA F5 8D     		jp	z,talk_figure
155   85E9
156   85E9              		; jesli nie postac
157   85E9 CD CA 86     		call	right_before
158   85EC E5           		push	hl					; SAVE tile adres
159   85ED 21 53 94     		ld	hl,m_walls
160   85F0 CD EB 87     		call	check_offset16
161   85F3 E5           		push	hl
162   85F4 DD E1        		pop		ix					; msb wskaznika z listy m_walls
163   85F6
164   85F6 E1           		pop		hl					; RESTORE tile adres
165   85F7
166   85F7              		; jesli nie sciana
167   85F7 FE FF        		cp	NONE
168   85F9 CA 15 86     		jp	z,_no_move
169   85FC
170   85FC              		; jesli sciana sprawdza co za sciana
171   85FC ED 4B 77 93  		ld	bc,(hero.offset)		; SAVE hero offset
172   8600 ED 53 77 93  		ld	(hero.offset),de		; offset sciany jako hero
173   8604 D9           		exx
174   8605 CD CA 86     		call	right_before
175   8608              		; jesli za sciana pusto
176   8608 FE 20        		cp	FLOOR_CHAR
177   860A 28 2A        		jr	z,_floor
178   860C              		; jesli za sciana zapadnia
179   860C FE 2E        		cp	PIT_CHAR
180   860E 28 11        		jr	z,_trap
181   8610
182   8610 D9           		exx
183   8611 ED 43 77 93  		ld	(hero.offset),bc		; RESTORE hero offset
184   8615              _no_move
185   8615              		PRINT_STR	MSG_LINE1 + 5, msg_no_way
185   8615 11 25 48    >		ld	de,MSG_LINE1 + 5
185   8618 01 30 95    >		ld	bc,msg_no_way
185   861B CD 33 89    >		call	pstring
186   861E C3 56 85     		jp	wait_release
187   8621 36 20        _trap	ld	(hl),FLOOR_CHAR
188   8623 DD 36 00 00  		ld	(ix),0
189   8627 DD 36 FF 00  		ld	(ix-1),0
190   862B              		PRINT_STR	MSG_LINE2, msg_pitfilled
190   862B 11 40 48    >		ld	de,MSG_LINE2
190   862E 01 3F 95    >		ld	bc,msg_pitfilled
190   8631 CD 33 89    >		call	pstring
191   8634 18 08        		jr	_common_ext
192   8636              _floor
193   8636 36 23        		ld	(hl),WALL_CHAR
194   8638 DD 72 00     		ld	(ix),d
195   863B DD 73 FF     		ld	(ix-1),e
196   863E              _common_ext
197   863E D9           		exx
198   863F 36 20        		ld	(hl),FLOOR_CHAR
199   8641 ED 43 77 93  		ld	(hero.offset),bc		; RESTORE hero offset
200   8645              		PRINT_STR	MSG_LINE1 + 6, msg_mwall
200   8645 11 26 48    >		ld	de,MSG_LINE1 + 6
200   8648 01 38 95    >		ld	bc,msg_mwall
200   864B CD 33 89    >		call	pstring
201   864E C3 20 85     		jp	refresh
202   8651
203   8651              ; -------------------------
204   8651              trn_r:
205   8651 CD BD 89     		call	message_area_clear
206   8654 21 76 93     		ld	hl,hero.direction
207   8657 34           		inc	(hl)
208   8658 7E           		ld	a,(hl)
209   8659 FE 04        		cp	WEST+1
210   865B C2 20 85     		jp	nz,refresh
211   865E 36 00        		ld	(hl),NORTH
212   8660 C3 20 85     		jp	refresh
213   8663              trn_l:
214   8663 CD BD 89     		call	message_area_clear
215   8666 21 76 93     		ld	hl,hero.direction
216   8669 35           		dec	(hl)
217   866A 7E           		ld	a,(hl)
218   866B FE FF        		cp	NORTH-1
219   866D C2 20 85     		jp	nz,refresh
220   8670 36 03        		ld	(hl),WEST
221   8672 C3 20 85     		jp	refresh
222   8675
223   8675              ; otwiera lub zamyka drzwi
224   8675              move_door:
225   8675 E5           		push	hl				; save adresu drzwi
226   8676 CD C3 87     		call	room_label
227   8679              		PRINT_STR	MSG_LINE1 + 3, msg_door
227   8679 11 23 48    >		ld	de,MSG_LINE1 + 3
227   867C 01 A5 94    >		ld	bc,msg_door
227   867F CD 33 89    >		call	pstring
228   8682 E1           		pop		hl				; restore
229   8683 7E           		ld	a,(hl)
230   8684 FE 2F        		cp	O_DOOR_CHAR
231   8686 28 16        		jr	z,close_door
232   8688
233   8688              open_door:
234   8688 CD 2A 87     		call	check_key
235   868B 28 05        		jr	z,_no_key
236   868D 36 2F        		ld	(hl),O_DOOR_CHAR
237   868F C3 20 85     		jp	refresh
238   8692              _no_key
239   8692              		PRINT_STR	MSG_LINE2 + 3, msg_nokey
239   8692 11 43 48    >		ld	de,MSG_LINE2 + 3
239   8695 01 BF 94    >		ld	bc,msg_nokey
239   8698 CD 33 89    >		call	pstring
240   869B C3 56 85     		jp	wait_release
241   869E              close_door:
242   869E 36 2B        		ld	(hl),C_DOOR_CHAR
243   86A0 3A 73 94     		ld	a,(door_nr)
244   86A3 CD 35 87     		call	remove_key
245   86A6 C3 20 85     		jp	refresh
246   86A9
247   86A9              ;-------------------------------------------------
248   86A9              ; Zmienia pozycje Hero
249   86A9              ; IN: DE - nowa pozycja ( offset wzgl. MAP )
250   86A9              ;-------------------------------------------------
251   86A9              move:
252   86A9 CD CA 86     		call	right_before
253   86AC
254   86AC FE 23        		cp	WALL_CHAR
255   86AE CA 5C 85     		jp	z,key_press
256   86B1 FE 2B        		cp	C_DOOR_CHAR
257   86B3 CA 5C 85     		jp	z,key_press
258   86B6 FE 26        		cp	FIGURE_CHAR
259   86B8 CA 5C 85     		jp	z,key_press
260   86BB FE 2E        		cp	PIT_CHAR
261   86BD CA 63 88     		jp	z,abbys
262   86C0
263   86C0 ED 53 77 93  		ld	(hero.offset),de	; Hero new offset
264   86C4
265   86C4 CD BD 89     		call	message_area_clear
266   86C7 C3 20 85     		jp	refresh
267   86CA
268   86CA              ;-----------------------------------------
269   86CA              ; Funkja wypluwa:
270   86CA              ; w A - char Tile bezposrednio przed Hero
271   86CA              ; e DE - jego OFFSET wzgl. MAP
272   86CA              ; w HL - jego ADRESS
273   86CA              ;-----------------------------------------
274   86CA              right_before:
275   86CA 21 84 93     		ld	hl,neighbor_offs
276   86CD ED 5B 76 93  		ld	de,(hero.direction)
277   86D1 16 00        		ld	d,00h
278   86D3 19           		add	hl,de		; adres offset'u Tile wzgl Hero
279   86D4 5E           		ld	e,(hl)
280   86D5 CB 7B        		bit	7,e
281   86D7 28 02        		jr	z,_addit
282   86D9 16 FF        		ld	d,0FFh
283   86DB 2A 77 93     _addit	ld	hl,(hero.offset)
284   86DE 19           		add	hl,de
285   86DF EB           		ex	de,hl		; offset Tile wzgl mapy
286   86E0 21 75 95     		ld	hl,MAP
287   86E3 19           		add	hl,de		; ADRES TILE PRZED HERO !
288   86E4 7E           		ld	a,(hl)		; a w A jego ikona (ascii)
289   86E5 C9           		ret
290   86E6
291   86E6              ;--------------------------------------------
292   86E6              ; Szuka ukrytych przejsc itp.
293   86E6              ;--------------------------------------------
294   86E6              search:
295   86E6 E5           		push	hl					; SAVE adres char przed Hero
296   86E7 D9           		exx
297   86E8              		PRINT_STR	MSG_LINE1 + 2, msg_searching
297   86E8 11 22 48    >		ld	de,MSG_LINE1 + 2
297   86EB 01 78 94    >		ld	bc,msg_searching
297   86EE CD 33 89    >		call	pstring
298   86F1 D9           		exx
299   86F2
300   86F2              		; ukryte przejscie ?
301   86F2 06 10        		ld	b,OBJ_MAX
302   86F4 21 33 94     		ld	hl,passages
303   86F7 CD EB 87     		call	check_offset16		; w HL msb offsety znalezionego objektu
304   86FA
305   86FA D1           		pop		de					; RESTORE adres
306   86FB
307   86FB FE FF        		cp	0FFh					; a moze nic tu nie ma?
308   86FD CA 14 87     		jp	z,_nothing_here
309   8700
310   8700 3E 20        		ld	a,FLOOR_CHAR
311   8702 12           		ld	(de),a					; jesli przejcie to zburz mur
312   8703 36 00        		ld	(hl),0					; Zeruje ten offset na liscie
313   8705 2B           		dec	hl						; nieodkrytych
314   8706 36 00        		ld	(hl),0					; przejsc
315   8708              		PRINT_STR	MSG_LINE2 + 2, msg_psgfinded
315   8708 11 42 48    >		ld	de,MSG_LINE2 + 2
315   870B 01 96 94    >		ld	bc,msg_psgfinded
315   870E CD 33 89    >		call	pstring
316   8711 C3 20 85     		jp	refresh
317   8714
318   8714              _nothing_here
319   8714              		PRINT_STR	MSG_LINE2 + 1, msg_nothing
319   8714 11 41 48    >		ld	de,MSG_LINE2 + 1
319   8717 01 86 94    >		ld	bc,msg_nothing
319   871A CD 33 89    >		call	pstring
320   871D C3 56 85     		jp	wait_release
321   8720
322   8720              ; ----------------------------------------------------
323   8720              ; Sprawdza co lezy pod nogami.
324   8720              ; OUT:	C - char przedmiotu
325   8720              ;		HL - jego adress
326   8720              ;		DE - i offset
327   8720              ; ----------------------------------------------------
328   8720              search_floor:
329   8720 ED 5B 77 93  		ld	de,(hero.offset)
330   8724 21 75 95     		ld	hl,MAP
331   8727 19           		add	hl,de
332   8728 4E           		ld	c,(hl)
333   8729 C9           		ret
334   872A
335   872A              ; --------------------------------------
336   872A              ; Sprawdza czy jest klucz do tych drzwi
337   872A              ; OUT:	A = 0 nie ma klucza, A != 0 jest
338   872A              ; --------------------------------------
339   872A              check_key:
340   872A 3A 73 94     		ld	a,(door_nr)
341   872D 11 7E 93     		ld	de,hero.bag.keys
342   8730 CD 3A 93     		call	nr_to_bit
343   8733 A1           		and	c
344   8734 C9           		ret
345   8735
346   8735              ; ----------------------------------------------------
347   8735              ; Wyjmuje klucz z otwartych drzwi i laduje do plecaka
348   8735              ; IN:	A - nr drzwi
349   8735              ; ----------------------------------------------------
350   8735              remove_key:
351   8735 11 7E 93     		ld	de,hero.bag.keys
352   8738 CD 3A 93     		call	nr_to_bit
353   873B B1           		or	c
354   873C 12           		ld	(de),a
355   873D C9           		ret
356   873E
357   873E              ; ----------------------------------------------------
358   873E              ; Podnosi klucz z gleby i laduje do plecaka
359   873E              ; IN:	C - char klucza
360   873E              ; ----------------------------------------------------
361   873E              take_key:
362   873E CD A0 87     		call	search_map
363   8741 21 F5 96     		ld	hl,key_door_nr
364   8744 19           		add	hl,de
365   8745 7E           		ld	a,(hl)
366   8746 CD 35 87     		call	remove_key
367   8749              		PRINT_STR	MSG_LINE2 + 4, msg_key
367   8749 11 44 48    >		ld	de,MSG_LINE2 + 4
367   874C 01 CB 94    >		ld	bc,msg_key
367   874F CD 33 89    >		call	pstring
368   8752 C3 56 85     		jp	wait_release
369   8755
370   8755              ; ----------------------------------------------------
371   8755              ; Podnosi bron z gleby i laduje do plecaka
372   8755              ; IN:	C - char broni
373   8755              ; ----------------------------------------------------
374   8755              take_weapon:
375   8755 CD A0 87     		call	search_map
376   8758 21 F7 96     		ld	hl,weapon_pow
377   875B 19           		add	hl,de
378   875C 7E           		ld	a,(hl)
379   875D 32 7C 93     		ld	(hero.bag.weapon),a
380   8760              		PRINT_STR	MSG_LINE2 + 2, msg_weapon
380   8760 11 42 48    >		ld	de,MSG_LINE2 + 2
380   8763 01 D6 94    >		ld	bc,msg_weapon
380   8766 CD 33 89    >		call	pstring
381   8769 21 7C 93     		ld	hl,hero.bag.weapon
382   876C 11 7A 93     		ld	de,hero.stat.str
383   876F CD 95 87     		call	equip
384   8772 C3 56 85     		jp	wait_release
385   8775
386   8775              ; ----------------------------------------------------
387   8775              ; Podnosi zbroje z gleby i laduje do plecaka
388   8775              ; IN:	C - char zbroi
389   8775              ; ----------------------------------------------------
390   8775              take_armour:
391   8775 CD A0 87     		call	search_map
392   8778 21 F9 96     		ld	hl,armour_pow
393   877B 19           		add	hl,de
394   877C 7E           		ld	a,(hl)
395   877D 32 7D 93     		ld	(hero.bag.armour),a
396   8780 21 7D 93     		ld	hl,hero.bag.armour
397   8783 11 7B 93     		ld	de,hero.stat.def
398   8786 CD 95 87     		call	equip
399   8789              		PRINT_STR	MSG_LINE2 + 2, msg_armour
399   8789 11 42 48    >		ld	de,MSG_LINE2 + 2
399   878C 01 E4 94    >		ld	bc,msg_armour
399   878F CD 33 89    >		call	pstring
400   8792 C3 56 85     		jp	wait_release
401   8795
402   8795              ; ----------------------------------------------------
403   8795              ; Wyciaga item z plecaka celem uzywania
404   8795              ; IN:	HL - adres item w plecaku
405   8795              ;		DE - adres statystyki, na ktora wplywa
406   8795              ; ----------------------------------------------------
407   8795              equip:
408   8795 4E           		ld	c,(hl)
409   8796 1A           		ld	a,(de)
410   8797 81           		add	a,c
411   8798 12           		ld	(de),a
412   8799 CD 01 88     		call	update_info_strings
413   879C CD 3F 88     		call	print_info
414   879F C9           		ret
415   87A0
416   87A0              ; ----------------------------------------------------
417   87A0              ; Przeszukuje mape w poszukiwaniu char'a
418   87A0              ; IN:	C - char do znalezienia
419   87A0              ;		HL - adres do sprawdzenia
420   87A0              ; OUT:	B, DE	- ktory w kolejnosci na MAP'e
421   87A0              ; ----------------------------------------------------
422   87A0              search_map:
423   87A0 EB           		ex	de,hl				; adres do znalezienia w DE
424   87A1 06 00        		ld	b,0					; licznik C char'ow
425   87A3 21 75 95     		ld	hl,MAP
426   87A6              _not_this
427   87A6 7E           		ld	a,(hl)
428   87A7 B9           		cp	c
429   87A8 28 03        		jr	z,_maybe_this
430   87AA 23           		inc	hl
431   87AB 18 F9        		jr	_not_this
432   87AD              _maybe_this
433   87AD 7B           		ld	a,e
434   87AE BD           		cp	l
435   87AF 28 04        		jr	z,_check_msb
436   87B1 23           		inc hl
437   87B2 04           		inc	b					; char ten, ale nie ten adres
438   87B3 18 F1        		jr _not_this			; jednak nie
439   87B5              _check_msb
440   87B5 7A           		ld	a,d
441   87B6 BC           		cp	h
442   87B7 28 04        		jr	z,_this_one
443   87B9 23           		inc	hl
444   87BA 04           		inc	b					; char ten, ale nie ten adres
445   87BB 18 E9        		jr _not_this			; no nie
446   87BD              _this_one
447   87BD 36 20        		ld	(hl),FLOOR_CHAR		; wziety z gleby
448   87BF 16 00        		ld	d,0
449   87C1 58           		ld	e,b
450   87C2 C9           		ret
451   87C3
452   87C3              ;-------------------------------------------------------
453   87C3              ; Przeszukuje po offsecie liste wszystkich drzwi
454   87C3              ; Drukuje nr na drzwiach przed Hero i wbija do zmiennej
455   87C3              ; IN:  DE - offset drzwi ( wzgl. map )
456   87C3              ; USED : A, BC, HL
457   87C3              ;-------------------------------------------------------
458   87C3              room_label:
459   87C3 06 10        		ld	b,OBJ_MAX
460   87C5 21 13 94     		ld	hl,doors
461   87C8 CD EB 87     		call	check_offset16
462   87CB 3C           		inc	a
463   87CC 32 73 94     		ld	(door_nr),a			; do zmiennej
464   87CF CD 16 93     		call	h2asci			; zamiana na ascii do druku
465   87D2 21 AE 94     		ld	hl,msg_door_nr
466   87D5 71           		ld	(hl),c
467   87D6 23           		inc	hl
468   87D7 70           		ld	(hl),b
469   87D8 C9           		ret
470   87D9
471   87D9              ; ------------------------
472   87D9              ; Sprawdza flagi
473   87D9              ; ------------------------
474   87D9              check_flags:
475   87D9 3A 75 94     		ld	a,(game_flags)
476   87DC E6 80        		and	%10000000
477   87DE 28 0A        		jr	z,_clr_flags
478   87E0 E6 7F        		and	%01111111
479   87E2 32 75 94     		ld	(game_flags),a
480   87E5 2A 76 94     		ld	hl,(flash_adr)
481   87E8 36 02        		ld	(hl),FOV_ATR
482   87EA              _clr_flags
483   87EA C9           		ret
484   87EB
485   87EB              ;------------------------------------------------------------------
486   87EB              ; szuka 16-bitowego offsetu na liscie objektow
487   87EB              ; IN:	DE - offset do wyszukania
488   87EB              ;	 	HL - adres listy offsetow objektow ( H - msb )
489   87EB              ; OUT:	A  - jesli FFh = nie znaleziony offset
490   87EB              ;	, w przeciwnym razie index znalezionego objektu na liscie ( od 0 )
491   87EB              ;		HL - msb offsetu na liscie offsetow
492   87EB              ; USED:	A, C, HL
493   87EB              ;------------------------------------------------------------------
494   87EB              check_offset16:
495   87EB 48           		ld	c,b		; save licznik objektow
496   87EC 7B           		ld	a,e
497   87ED              _cell
498   87ED BE           		cp	(hl)
499   87EE 23           		inc	hl
500   87EF 20 07        		jr	nz,_msb
501   87F1 7A           		ld	a,d
502   87F2 BE           		cp	(hl)
503   87F3 20 02        		jr	nz,_lsb
504   87F5 18 07        		jr	_finded
505   87F7              _lsb
506   87F7 7B           		ld	a,e
507   87F8              _msb
508   87F8 23           		inc	hl
509   87F9 10 F2        		djnz	_cell
510   87FB 3E FF        		ld	a,0FFh
511   87FD C9           		ret
512   87FE              _finded
513   87FE 79           		ld	a,c		; restore
514   87FF 90           		sub	b		; index znalezionego objektu ( od 0 )
515   8800 C9           		ret
516   8801              ;------------------------------------------------------
517   8801              ; Wbija biezace statystyki hero do stringow stat_info
518   8801              ; USED: wszystko
519   8801              ;------------------------------------------------------
520   8801              update_info_strings:
521   8801 21 8C 93     		ld	hl,stat_info + 4
522   8804 11 79 93     		ld	de,hero.stat.hp
523   8807 06 03        		ld	b,3
524   8809              _nxt_stat
525   8809 C5           		push	bc
526   880A 1A           		ld	a,(de)
527   880B CD 16 93     		call	h2asci
528   880E 71           		ld	(hl),c
529   880F 23           		inc	hl
530   8810 70           		ld	(hl),b
531   8811 13           		inc	de
532   8812 06 00        		ld	b,0
533   8814 0E 06        		ld	c,6
534   8816 09           		add	hl,bc
535   8817 C1           		pop		bc
536   8818 10 EF        		djnz	_nxt_stat
537   881A              		; etykieta broni i zbroi
538   881A 06 02        		ld	b,LABELS_NUMBER
539   881C 3A 7C 93     		ld	a,(hero.bag.weapon)
540   881F EB           		ex	de,hl				; w DE miejsce w stringu
541   8820 21 AD 93     		ld	hl,weapon_names
542   8823
543   8823              _modify_string
544   8823
545   8823 C5           		push	bc
546   8824
547   8824 47           		ld	b,a
548   8825 87           		add	a,a
549   8826 80           		add	a,b							; x3
550   8827 06 00        		ld	b,0
551   8829 4F           		ld	c,a
552   882A 09           		add	hl,bc
553   882B 01 03 00     		ld	bc,3						; ( x3 litery )
554   882E ED B0        		ldir
555   8830
556   8830 3A 7D 93     		ld	a,(hero.bag.armour)
557   8833 21 05 00     		ld	hl,5
558   8836 19           		add	hl,de
559   8837 EB           		ex	de,hl
560   8838 21 E0 93     		ld	hl,armour_names
561   883B
562   883B C1           		pop		bc
563   883C
564   883C 10 E5        		djnz	_modify_string
565   883E
566   883E C9           		ret
567   883F              ;------------------------------------------------------
568   883F              ; Drukuje statystyki
569   883F              ;------------------------------------------------------
570   883F              print_info:
571   883F 01 88 93     		ld	bc,stat_info
572   8842 11 37 40     		ld	de,STS_ADR
573   8845 26 03        		ld	h,3				;  ilosc etykiet statystyk
574   8847 CD 52 88     		call	_p_info
575   884A
576   884A 01 9D 93     		ld	bc,__1st
577   884D 11 37 49     		ld	de,ITM_ADR
578   8850 26 02        		ld	h,2				;  ilosc etykiet przedmiotow
579   8852              _p_info
580   8852 E5           		push	hl
581   8853 D5           		push	de
582   8854
583   8854 CD 38 89     		call	pstring_global
584   8857
585   8857 03           		inc	bc
586   8858 D1           		pop		de
587   8859 21 20 00     		ld	hl,32
588   885C 19           		add	hl,de
589   885D EB           		ex	de,hl
590   885E E1           		pop		hl
591   885F 25           		dec	h
592   8860 20 F0        		jr	nz,_p_info
593   8862 C9           		ret
594   8863
595   8863              abbys:
596   8863              		PRINT_STR	MSG_LINE1,msg_pit
596   8863 11 20 48    >		ld	de,MSG_LINE1
596   8866 01 51 95    >		ld	bc,msg_pit
596   8869 CD 33 89    >		call	pstring
597   886C              		PRINT_STR	MSG_LINE2,msg_restart
597   886C 11 40 48    >		ld	de,MSG_LINE2
597   886F 01 63 95    >		ld	bc,msg_restart
597   8872 CD 33 89    >		call	pstring
598   8875              	;	ld	a,2
599   8875              	;	ld	(hero.mapY),a
600   8875              	;	ld	a,2
601   8875              	;	ld	(hero.mapX),a
602   8875
603   8875 C3 0D 85     		jp	_restart
604   8878
605   8878              ;---------------------------------------------
606   8878              ; Teleport
607   8878              ;---------------------------------------------
608   8878              teleport:
609   8878              		CLEAR_LINES SCREEN_TOP, 192
609   8878 11 00 00    >		ld	de,0000h
609   887B 21 00 00    >		ld	hl,0000h
609   887E 39          >		add	hl,sp			; save SP
609   887F 31 00 58    >		ld	sp,SCREEN_TOP	; czysci od gory
609   8882 06 C0       >		ld	b,192		; 192 = 6144 / ( 16 x 2 )
609   8884             >.clear_block:
609   8884             >	REPT	16				; zeruje 32 bajty na obrot
609   8884 D5          >		push	de
609   8885 D5          >		push	de
609   8886 D5          >		push	de
609   8887 D5          >		push	de
609   8888 D5          >		push	de
609   8889 D5          >		push	de
609   888A D5          >		push	de
609   888B D5          >		push	de
609   888C D5          >		push	de
609   888D D5          >		push	de
609   888E D5          >		push	de
609   888F D5          >		push	de
609   8890 D5          >		push	de
609   8891 D5          >		push	de
609   8892 D5          >		push	de
609   8893 D5          >		push	de
609   8894             >	ENDR
609   8894 10 EE       >		djnz	.clear_block
609   8896 F9          >		ld	sp,hl			; restore SP
610   8897              		PRINT_STR	MSG_LINE1 + 4, msg_teleport
610   8897 11 24 48    >		ld	de,MSG_LINE1 + 4
610   889A 01 28 95    >		ld	bc,msg_teleport
610   889D CD 33 89    >		call	pstring
611   88A0
612   88A0              ;------------------------
613   88A0              ; Wyjscie
614   88A0              ;------------------------
615   88A0              _halt:
616   88A0 08           		ex		af,af'
617   88A1 D9           		exx
618   88A2 E1           		pop		hl
619   88A3 D1           		pop		de
620   88A4 C1           		pop		bc
621   88A5 F1           		pop		af
622   88A6 D9           		exx
623   88A7 08           		ex		af,af'
624   88A8
625   88A8 FB           		ei
626   88A9 C9           		ret
627   88AA
628   88AA              ;--------------------------
629   88AA
630   88AA              		include screen.asm
# file opened: screen.asm
  1+  88AA              ; ==================================================================
  2+  88AA              ; === Przyjmuje y,x ekranu, a zwraca adres w pamieci ekranu ========
  3+  88AA              ; IN:
  4+  88AA              ;	BC - Y,X
  5+  88AA              ; OUT:
  6+  88AA              ;	DE - adres pozycji na ekranie
  7+  88AA              ; USED:	A
  8+  88AA              ; ==================================================================
  9+  88AA              gotoyx:
 10+  88AA 78           		ld	a,b
 11+  88AB E6 18        		and	%00011000		; bity 3-4 Y-ka
 12+  88AD F6 40        		or	high SCREEN
 13+  88AF 57           		ld	d,a
 14+  88B0
 15+  88B0 78           		ld	a,b
 16+  88B1 E6 07        		and	%00000111		; bity 0-2 Y-ka
 17+  88B3 0F           		rrca				; * 32
 18+  88B4 0F           		rrca				; ( gorna tercja ekranu )
 19+  88B5 0F           		rrca
 20+  88B6 81           		add	a,c
 21+  88B7 5F           		ld	e,a
 22+  88B8 C9           		ret
 23+  88B9
 24+  88B9              ; ===================================================
 25+  88B9              ; =======       Drukuje znak na ekranie      ========
 26+  88B9              ; IN: 	DE - adres gdzie ma pojawic sie znak
 27+  88B9              ;	A - ASCII char do wyswietlenia
 28+  88B9              ; USED:	A, DE, HL
 29+  88B9              ; ===================================================
 30+  88B9              pchar:
 31+  88B9 D6 20        		sub	20h			; start od spacji, a
 32+  88BB 87           		add	a,a			; x2
 33+  88BC 26 00        		ld	h,0
 34+  88BE 6F           		ld	l,a
 35+  88BF 29           		add	hl,hl
 36+  88C0 29           		add	hl,hl			; x8
 37+  88C1 3E 3D        		ld	a,high FONTS
 38+  88C3 84           		add	a,h
 39+  88C4 67           		ld	h,a
 40+  88C5              	REPT	8
 41+  88C5 7E          >		ld	a,(hl)
 42+  88C6 12          >		ld	(de),a
 43+  88C7 23          >		inc	hl
 44+  88C8 14          >		inc	d
 41+  88C9 7E          >		ld	a,(hl)
 42+  88CA 12          >		ld	(de),a
 43+  88CB 23          >		inc	hl
 44+  88CC 14          >		inc	d
 41+  88CD 7E          >		ld	a,(hl)
 42+  88CE 12          >		ld	(de),a
 43+  88CF 23          >		inc	hl
 44+  88D0 14          >		inc	d
 41+  88D1 7E          >		ld	a,(hl)
 42+  88D2 12          >		ld	(de),a
 43+  88D3 23          >		inc	hl
 44+  88D4 14          >		inc	d
 41+  88D5 7E          >		ld	a,(hl)
 42+  88D6 12          >		ld	(de),a
 43+  88D7 23          >		inc	hl
 44+  88D8 14          >		inc	d
 41+  88D9 7E          >		ld	a,(hl)
 42+  88DA 12          >		ld	(de),a
 43+  88DB 23          >		inc	hl
 44+  88DC 14          >		inc	d
 41+  88DD 7E          >		ld	a,(hl)
 42+  88DE 12          >		ld	(de),a
 43+  88DF 23          >		inc	hl
 44+  88E0 14          >		inc	d
 41+  88E1 7E          >		ld	a,(hl)
 42+  88E2 12          >		ld	(de),a
 43+  88E3 23          >		inc	hl
 44+  88E4 14          >		inc	d
 45+  88E5              	ENDR
 46+  88E5 C9           		ret
 47+  88E6
 48+  88E6              ; ==================================================================
 49+  88E6              ; IN:	DE - adres gdzie ma pojawic sie tile
 50+  88E6              ;		BC - adres pierwszego tile do wyswietlenia
 51+  88E6              ; ==================================================================
 52+  88E6              print_tile_line:
 53+  88E6              ;		-- atrybut do bufora ATR_BUF --
 54+  88E6 7A           		ld	a,d
 55+  88E7 0F           		rrca
 56+  88E8 0F           		rrca
 57+  88E9 0F           		rrca
 58+  88EA E6 03        		and	3
 59+  88EC F6 60        		or	high ATR_BUF
 60+  88EE 67           		ld	h,a
 61+  88EF 6B           		ld	l,e
 62+  88F0 E5           		push	hl
 63+  88F1 DD E1        		pop		ix			; adres poczatku lini atrybutu
 64+  88F3              ;		----------------------------------
 65+  88F3              _next_char_in_line
 66+  88F3 0A           		ld	a,(bc)
 67+  88F4 FE FF        		cp	TILE_EOL
 68+  88F6 CA 32 89     		jp	z,ptile_out
 69+  88F9
 70+  88F9 08           		ex	af,af'
 71+  88FA DD 77 00     		ld	(ix),a
 72+  88FD 08           		ex	af,af'
 73+  88FE
 74+  88FE              		MUL_Ax8_TO_HL
 74+  88FE 26 00       >		ld	h,0
 74+  8900 6F          >		ld	l,a
 74+  8901 29          >		add	hl,hl
 74+  8902 29          >		add	hl,hl
 74+  8903 29          >		add	hl,hl
 75+  8904 3E 80        		ld	a,high TILES
 76+  8906 84           		add	a,h
 77+  8907 67           		ld	h,a
 78+  8908
 79+  8908              ;	ld	a,(main_counter)
 80+  8908              ;	cp	10
 81+  8908              ;	jr	z,_or_it
 82+  8908              ;	cp	12
 83+  8908              ;	jr	z,_or_it
 84+  8908
 85+  8908              	REPT	8
 86+  8908 7E          >		ld	a,(hl)
 87+  8909 12          >		ld	(de),a
 88+  890A 23          >		inc	hl
 89+  890B 14          >		inc	d
 86+  890C 7E          >		ld	a,(hl)
 87+  890D 12          >		ld	(de),a
 88+  890E 23          >		inc	hl
 89+  890F 14          >		inc	d
 86+  8910 7E          >		ld	a,(hl)
 87+  8911 12          >		ld	(de),a
 88+  8912 23          >		inc	hl
 89+  8913 14          >		inc	d
 86+  8914 7E          >		ld	a,(hl)
 87+  8915 12          >		ld	(de),a
 88+  8916 23          >		inc	hl
 89+  8917 14          >		inc	d
 86+  8918 7E          >		ld	a,(hl)
 87+  8919 12          >		ld	(de),a
 88+  891A 23          >		inc	hl
 89+  891B 14          >		inc	d
 86+  891C 7E          >		ld	a,(hl)
 87+  891D 12          >		ld	(de),a
 88+  891E 23          >		inc	hl
 89+  891F 14          >		inc	d
 86+  8920 7E          >		ld	a,(hl)
 87+  8921 12          >		ld	(de),a
 88+  8922 23          >		inc	hl
 89+  8923 14          >		inc	d
 86+  8924 7E          >		ld	a,(hl)
 87+  8925 12          >		ld	(de),a
 88+  8926 23          >		inc	hl
 89+  8927 14          >		inc	d
 90+  8928              	ENDR
 91+  8928              ;	jr	_reset_and_inc
 92+  8928
 93+  8928              ;_or_it
 94+  8928              ;		REPT	8
 95+  8928              ;			ld	a,(de)
 96+  8928              ;			or	(hl)
 97+  8928              ;			ld	(de),a
 98+  8928              ;			inc	hl
 99+  8928              ;			inc	d
100+  8928              ;		ENDR
101+  8928              ;_reset_and_inc
102+  8928 7A           		ld	a,d
103+  8929 D6 08        		sub	8
104+  892B 57           		ld	d,a
105+  892C
106+  892C 13           		inc	de
107+  892D 03           		inc	bc
108+  892E DD 23        		inc	ix
109+  8930 18 C1        		jr	_next_char_in_line
110+  8932              ptile_out:
111+  8932 C9           		ret
112+  8933
113+  8933              ; ==================================================================
114+  8933              ; IN:	DE - adres gdzie ma pojawic sie string
115+  8933              ;		BC - adres stringa do wyswietlenia
116+  8933              ; ==================================================================
117+  8933              pstring:
118+  8933 3E 01        		ld	a,1
119+  8935 32 74 94     		ld	(message_flag),a		; trzeba bedzie wyczyscic powiadomienia
120+  8938              pstring_global:
121+  8938 0A           		ld	a,(bc)
122+  8939 FE 24        		cp	STRING_DELIM
123+  893B CA 47 89     		jp	z,pstring_out
124+  893E D5           		push	de
125+  893F CD B9 88     		call	pchar
126+  8942 D1           		pop	de
127+  8943 13           		inc	de
128+  8944 03           		inc	bc
129+  8945 18 EC        		jr	pstring
130+  8947              pstring_out:
131+  8947 C9           		ret
132+  8948
133+  8948              ; ==================================================================
134+  8948              ;	Zeruje 9-cio kolumnowe linie do wyczyszczenia
135+  8948              ;	IN:	HL	-  adres pierwszej lini do czyszczenia
136+  8948              ;	B	_	liczba lini do wyczyszczenia
137+  8948              ; ==================================================================
138+  8948              clear_txtlines:
139+  8948 54           		ld	d,h
140+  8949 5D           		ld	e,l			; SAVE HL
141+  894A              _txtline_down:
142+  894A AF           		xor	a
143+  894B 0E 08        		ld	c,8
144+  894D              _line_down:
145+  894D              	REPT	FOV_WIDTH
146+  894D 77          >		ld	(hl),a
147+  894E 2C          >		inc	l
146+  894F 77          >		ld	(hl),a
147+  8950 2C          >		inc	l
146+  8951 77          >		ld	(hl),a
147+  8952 2C          >		inc	l
146+  8953 77          >		ld	(hl),a
147+  8954 2C          >		inc	l
146+  8955 77          >		ld	(hl),a
147+  8956 2C          >		inc	l
146+  8957 77          >		ld	(hl),a
147+  8958 2C          >		inc	l
146+  8959 77          >		ld	(hl),a
147+  895A 2C          >		inc	l
146+  895B 77          >		ld	(hl),a
147+  895C 2C          >		inc	l
146+  895D 77          >		ld	(hl),a
147+  895E 2C          >		inc	l
148+  895F              	ENDR
149+  895F 6B           		ld	l,e			; RESTORE L
150+  8960 24           		inc	h
151+  8961 0D           		dec	c
152+  8962 C2 4D 89     	jp	nz,_line_down
153+  8965 62           		ld	h,d			; RESTORE H
154+  8966 7D           		ld	a,l
155+  8967 C6 20        		add	a,SCREEN_WIDTH
156+  8969 6F           		ld	l,a
157+  896A 5D           		ld	e,l
158+  896B 30 05        		jr	nc,_same_third
159+  896D 7C           		ld	a,h
160+  896E C6 08        		add	a,$08
161+  8970 67           		ld	h,a
162+  8971 54           		ld	d,h
163+  8972              _same_third:
164+  8972 05           		dec	b
165+  8973 C2 4A 89     		jp	nz,_txtline_down
166+  8976 C9           		ret
167+  8977
168+  8977              ; ==================================================================
169+  8977              ;	Ustawia miganie char'a
170+  8977              ;	IN:	DE - adres chara w pamieci ekranu
171+  8977              ; ==================================================================
172+  8977              flash_portal:
173+  8977 7A           		ld	a,d					; restore DE
174+  8978 D6 08        		sub	8					;
175+  897A 57           		ld	d,a					; ----------
176+  897B
177+  897B CD 90 89     		call	scr_to_atr
178+  897E EB           		ex	de,hl
179+  897F 36 86        		ld	(hl),PORTAL_ATR
180+  8981 22 76 94     		ld	(flash_adr),hl
181+  8984 3A 75 94     		ld	a,(game_flags)
182+  8987 B7 F6 80     		or	a,%10000000
183+  898A 32 75 94     		ld	(game_flags),a
184+  898D C3 8A 8B     		jp	_printout
185+  8990
186+  8990              ; ==================================================================
187+  8990              ;	Zamienia adres pamieci ekranu na adres atrybutu
188+  8990              ;	IN:	DE	- adres pamieci ekranu
189+  8990              ;	OUT:	DE	- adres atrybutu
190+  8990              ; ==================================================================
191+  8990              scr_to_atr:
192+  8990 7A           		ld	a,d
193+  8991 0F           		rrca
194+  8992 0F           		rrca
195+  8993 0F           		rrca
196+  8994 E6 03        		and	%00000011
197+  8996 F6 58        		or	high SCREEN_ATR
198+  8998 57           		ld	d,a
199+  8999 C9           		ret
200+  899A
201+  899A              ; ==================================================================
202+  899A              ;	Ustawia atrybuty dla lini na ekranie
203+  899A              ;	IN:	A - atrybut
204+  899A              ;		C - liczba kolumn
205+  899A              ;		DE - YX
206+  899A              ; ==================================================================
207+  899A              set_atr_line
208+  899A
209+  899A 08           		ex	af,af'
210+  899B
211+  899B 7A           		ld	a,d					; Y
212+  899C CB 2F        		sra	a
213+  899E CB 2F        		sra	a
214+  89A0 CB 2F        		sra	a
215+  89A2 C6 58        		add	a,high SCREEN_ATR
216+  89A4 67           		ld	h,a
217+  89A5 7A           		ld	a,d
218+  89A6 E6 07        		and	%00000111
219+  89A8 0F           		rrca
220+  89A9 0F           		rrca
221+  89AA 0F           		rrca
222+  89AB 83           		add	a,e					; + X
223+  89AC 6F           		ld	l,a
224+  89AD 41           		ld	b,c
225+  89AE
226+  89AE 08           		ex	af,af'
227+  89AF
228+  89AF              _nxt_col:
229+  89AF 77           		ld	(hl),a
230+  89B0 2C           		inc	l
231+  89B1 10 FC        	djnz	_nxt_col
232+  89B3 C9           		ret
233+  89B4
234+  89B4              ; ==================================================================
235+  89B4              ;	Ustawia atrybuty dla bloku ( czworokata ) na ekranie
236+  89B4              ;	IN:	A - atrybut
237+  89B4              ;		B - liczba lini
238+  89B4              ;		C - liczba kolumn
239+  89B4              ;		DE - YX
240+  89B4              ; ==================================================================
241+  89B4              set_atr_block:
242+  89B4
243+  89B4 C5           		push	bc
244+  89B5
245+  89B5 CD 9A 89     		call set_atr_line
246+  89B8 14           		inc	d
247+  89B9
248+  89B9 C1           		pop		bc
249+  89BA
250+  89BA 10 F8        	djnz	set_atr_block
251+  89BC C9           		ret
252+  89BD
253+  89BD              ; ---------------------------------------------------------------
254+  89BD              ; Jesli bylo powiadomienie w poprzednim ruchu - trzeba wyczyscic
255+  89BD              ; ---------------------------------------------------------------
256+  89BD              message_area_clear:
257+  89BD 3A 74 94     		ld	a,(message_flag)
258+  89C0 B7           		or	a
259+  89C1 C8           		ret	z
260+  89C2
261+  89C2 21 20 48     		ld	hl,MSG_ADR				; blok lewy
262+  89C5 06 02        		ld	b,2
263+  89C7 CD 48 89     		call	clear_txtlines
264+  89CA
265+  89CA 21 28 48     		ld	hl,MSG_ADR + 8			; prawy
266+  89CD 06 02        		ld	b,2
267+  89CF CD 48 89     		call	clear_txtlines
268+  89D2
269+  89D2 AF           		xor	a
270+  89D3 32 74 94     		ld	(message_flag),a
271+  89D6 C9           		ret
272+  89D7
273+  89D7              ; ==========================================
274+  89D7              ; Kopiuje atrybuty ekranu z bufora
275+  89D7              ; !!! do optymalizacji
276+  89D7              ; ==========================================
277+  89D7              atr_buff_to_atr:
278+  89D7 21 24 60     		ld	hl,W3D_ATR_BUF
279+  89DA 11 24 58     		ld	de,W3D_ATR_ADR
280+  89DD              	REPT	6
281+  89DD 3E 17       >		ld	a,23
282+  89DF 01 09 00    >		ld	bc,9
283+  89E2 ED B0       >		ldir
284+  89E4 85          >		add	a,l
285+  89E5 6F          >		ld	l,a
286+  89E6 5F          >		ld	e,a
281+  89E7 3E 17       >		ld	a,23
282+  89E9 01 09 00    >		ld	bc,9
283+  89EC ED B0       >		ldir
284+  89EE 85          >		add	a,l
285+  89EF 6F          >		ld	l,a
286+  89F0 5F          >		ld	e,a
281+  89F1 3E 17       >		ld	a,23
282+  89F3 01 09 00    >		ld	bc,9
283+  89F6 ED B0       >		ldir
284+  89F8 85          >		add	a,l
285+  89F9 6F          >		ld	l,a
286+  89FA 5F          >		ld	e,a
281+  89FB 3E 17       >		ld	a,23
282+  89FD 01 09 00    >		ld	bc,9
283+  8A00 ED B0       >		ldir
284+  8A02 85          >		add	a,l
285+  8A03 6F          >		ld	l,a
286+  8A04 5F          >		ld	e,a
281+  8A05 3E 17       >		ld	a,23
282+  8A07 01 09 00    >		ld	bc,9
283+  8A0A ED B0       >		ldir
284+  8A0C 85          >		add	a,l
285+  8A0D 6F          >		ld	l,a
286+  8A0E 5F          >		ld	e,a
281+  8A0F 3E 17       >		ld	a,23
282+  8A11 01 09 00    >		ld	bc,9
283+  8A14 ED B0       >		ldir
284+  8A16 85          >		add	a,l
285+  8A17 6F          >		ld	l,a
286+  8A18 5F          >		ld	e,a
287+  8A19              	ENDR
288+  8A19 C9           		ret
289+  8A1A              ; ==========================================
290+  8A1A              ; Druguje ramke okna
291+  8A1A              ; IN:	BC - Y, X lewego gornego rogu ramki
292+  8A1A              ; ==========================================
293+  8A1A              print_frames:
294+  8A1A 21 37 8A     		ld	hl,fov_frame_indexes			; iterator
295+  8A1D 06 22        			ld	b,FFH * 2 + F3H * 2	; licznik
296+  8A1F              _line_dwn:
297+  8A1F
298+  8A1F C5           		push	bc
299+  8A20
300+  8A20 46           		ld	b,(hl)
301+  8A21 23           		inc	hl
302+  8A22 4E           		ld	c,(hl)
303+  8A23 CD AA 88     		call	gotoyx
304+  8A26              		; adres w DE
305+  8A26 23           		inc	hl
306+  8A27 44           		ld	b,h
307+  8A28 4D           		ld	c,l
308+  8A29
309+  8A29 08           		ex	af,af'
310+  8A2A 3E 04        		ld	a,BLACK_BGD OR GREEN
311+  8A2C 08           		ex	af,af'
312+  8A2D
313+  8A2D CD E6 88     		call	print_tile_line
314+  8A30              		; BC - iterator na $FF (eol)
315+  8A30 60           		ld	h,b
316+  8A31 69           		ld	l,c
317+  8A32 23           		inc	hl
318+  8A33
319+  8A33 C1           		pop		bc
320+  8A34
321+  8A34 10 E9        		djnz	_line_dwn
322+  8A36 C9           		ret
323+  8A37
324+  8A37              ; ========================================================================
325+  8A37              fov_frame_indexes:
326+  8A37 0C 03 4C 4D  	db	FFY, FFX, 76, 77, 78, 79, 80, 76, 77, 78, 79, 80, 76, $FF
326+  8A3B 4E 4F 50 4C
326+  8A3F 4D 4E 4F 50
326+  8A43 4C FF
327+  8A45 0D 03 51 FF  	db	FFY+1, FFX, 81, $FF, FFY+1, FFX+FFW, 81, $FF
327+  8A49 0D 0D 51 FF
328+  8A4D 0E 03 52 FF  	db	FFY+2, FFX, 82, $FF, FFY+2, FFX+FFW, 82, $FF
328+  8A51 0E 0D 52 FF
329+  8A55 0F 03 53 FF  	db	FFY+3, FFX, 83, $FF, FFY+3, FFX+FFW, 83, $FF
329+  8A59 0F 0D 53 FF
330+  8A5D 10 03 54 FF  	db	FFY+4, FFX, 84, $FF, FFY+4, FFX+FFW, 84, $FF
330+  8A61 10 0D 54 FF
331+  8A65 11 03 4C FF  	db	FFY+5, FFX, 76, $FF, FFY+5, FFX+FFW, 76, $FF
331+  8A69 11 0D 4C FF
332+  8A6D 12 03 51 FF  	db	FFY+6, FFX, 81, $FF, FFY+6, FFX+FFW, 81, $FF
332+  8A71 12 0D 51 FF
333+  8A75 13 03 52 FF  	db	FFY+7, FFX, 82, $FF, FFY+7, FFX+FFW, 82, $FF
333+  8A79 13 0D 52 FF
334+  8A7D 14 03 53 FF  	db	FFY+8, FFX, 83, $FF, FFY+8, FFX+FFW, 83, $FF
334+  8A81 14 0D 53 FF
335+  8A85 15 03 54 FF  	db	FFY+9, FFX, 84, $FF, FFY+9, FFX+FFW, 84, $FF
335+  8A89 15 0D 54 FF
336+  8A8D 16 03 4C 4D  	db	FFY+10, FFX, 76, 77, 78, 79, 80, 76, 77, 78, 79, 80, 76, $FF
336+  8A91 4E 4F 50 4C
336+  8A95 4D 4E 4F 50
336+  8A99 4C FF
337+  8A9B
338+  8A9B 00 03 4C 4D  	db	F3Y, F3X, 76, 77, 78, 79, 80, 76, 77, 78, 79, 80, 76, $FF
338+  8A9F 4E 4F 50 4C
338+  8AA3 4D 4E 4F 50
338+  8AA7 4C FF
339+  8AA9 01 03 51 FF  	db	F3Y+1, F3X, 81, $FF, F3Y+1, F3X+F3W, 81, $FF
339+  8AAD 01 0D 51 FF
340+  8AB1 02 03 52 FF  	db	F3Y+2, F3X, 82, $FF, F3Y+2, F3X+F3W, 82, $FF
340+  8AB5 02 0D 52 FF
341+  8AB9 03 03 53 FF  	db	F3Y+3, F3X, 83, $FF, F3Y+3, F3X+F3W, 83, $FF
341+  8ABD 03 0D 53 FF
342+  8AC1 04 03 51 FF  	db	F3Y+4, F3X, 81, $FF, F3Y+4, F3X+F3W, 81, $FF
342+  8AC5 04 0D 51 FF
343+  8AC9 05 03 52 FF  	db	F3Y+5, F3X, 82, $FF, F3Y+5, F3X+F3W, 82, $FF
343+  8ACD 05 0D 52 FF
344+  8AD1 06 03 53 FF  	db	F3Y+6, F3X, 83, $FF, F3Y+6, F3X+F3W, 83, $FF
344+  8AD5 06 0D 53 FF
345+  8AD9 07 03 4C 4D  	db	F3Y+7, F3X, 76, 77, 78, 79, 80, 76, 77, 78, 79, 80, 76, $FF
345+  8ADD 4E 4F 50 4C
345+  8AE1 4D 4E 4F 50
345+  8AE5 4C FF
346+  8AE7
# file closed: screen.asm
631   8AE7              		include	fov.asm
# file opened: fov.asm
  1+  8AE7              ;=============
  2+  8AE7              field_of_view:
  3+  8AE7              ;=============
  4+  8AE7              	; fov_coords - offsety tiles na ekranie ( zawsze stale )
  5+  8AE7              	; fov_offsets - offsety tiles na mapie ( zaleza od szerokosci mapy )
  6+  8AE7
  7+  8AE7              	; Ustawienie wskaznika fov_coords w zaleznosci kierunku patrzenia.
  8+  8AE7              	; wariant z 4 bajtowa tabelka fov_shift ( staly krok o 36B )
  9+  8AE7 21 83 8D     		ld	hl,fov_shift
 10+  8AEA 3A 76 93     		ld	a,(hero.direction)
 11+  8AED 16 00        		ld	d,0
 12+  8AEF 5F           		ld	e,a
 13+  8AF0 19           		add	hl,de
 14+  8AF1 5E           		ld	e,(hl)			; przesuniecie do dodania
 15+  8AF2 21 F3 8C     		ld	hl,fov_coords
 16+  8AF5 19           		add	hl,de
 17+  8AF6 E5           		push	hl			; SAVE coords_pointer
 18+  8AF7
 19+  8AF7
 20+  8AF7              	; Ustawienie wkaznika dla offsetow tiles
 21+  8AF7              	; koordynaty oraz offsety sa 2 bajtowe, wiec offset w DE jest ten sam
 22+  8AF7 21 63 8C     		ld	hl,fov_offsets
 23+  8AFA 19           		add	hl,de			; wskaznik na offset tile
 24+  8AFB E5           		push	hl			; SAVE offset_pointer
 25+  8AFC
 26+  8AFC              	; Wszystkie obiekty w polu widzenia sa dodawane do tej listy
 27+  8AFC              	; 3 Bajty dla obiektu: y, x, ASCII char obiektu
 28+  8AFC DD 21 F4 8B  		ld	ix,fov_list
 29+  8B00
 30+  8B00              	; Dodanie offsetow YX Tiles (wzgl. Hero ) do YX Hero
 31+  8B00 06 12        		ld	b,18			; 18 przebiegow petli
 32+  8B02 0E 11        		ld	c,HERO_Y
 33+  8B04
 34+  8B04 D9           		exx
 35+  8B05 C1           		pop		bc			; RESTORE offset_pointer
 36+  8B06 D9           		exx
 37+  8B07
 38+  8B07 E1           		pop		hl			; RESTORE coords_pointer
 39+  8B08
 40+  8B08              setdataloop:
 41+  8B08              			; Y
 42+  8B08 5E           		ld	e,(hl)			; offset Y tile
 43+  8B09 79           		ld	a,c				; HERO_Y
 44+  8B0A 83           		add	a,e
 45+  8B0B DD 77 00     		ld	(ix),a			; do Y tile i zapis do fov_list
 46+  8B0E 23           		inc	hl
 47+  8B0F
 48+  8B0F              			; X
 49+  8B0F 56           		ld	d,(hl)			; offset X tile
 50+  8B10 3E 08        		ld	a,HERO_X
 51+  8B12 82           		add	a,d
 52+  8B13 DD 77 01     		ld	(ix+1),a		; do X tile i zapis do fov_list
 53+  8B16
 54+  8B16              			; char
 55+  8B16 D9           		exx
 56+  8B17
 57+  8B17 0A           		ld	a,(bc)
 58+  8B18 5F           		ld	e,a
 59+  8B19 03           		inc	bc
 60+  8B1A 0A           		ld	a,(bc)
 61+  8B1B 57           		ld	d,a
 62+  8B1C 2A 77 93     		ld	hl,(hero.offset)
 63+  8B1F 19           		add	hl,de			; dodanie przesuniecia Hero
 64+  8B20 EB           		ex	de,hl			; save sumy przesuniec
 65+  8B21 21 75 95     		ld	hl,MAP
 66+  8B24 19           		add	hl,de			; i odczytanie z mapy char
 67+  8B25 7E           		ld	a,(hl)			; Tile i zapisanie tego
 68+  8B26 DD 77 02     		ld	(ix+2),a		; char (Tile) na liscie fov
 69+  8B29
 70+  8B29 D9           		exx
 71+  8B2A
 72+  8B2A              	; Przesuwa wskazniki koordynatow, wskaznika offsetu wzgl.Hero
 73+  8B2A              	; i wskaznika listy FOV
 74+  8B2A 23           		inc	hl
 75+  8B2B
 76+  8B2B D9           		exx
 77+  8B2C 03           		inc	bc
 78+  8B2D D9           		exx
 79+  8B2E
 80+  8B2E 11 03 00     		ld	de,3
 81+  8B31 DD 19        		add	ix,de
 82+  8B33 10 D3        		djnz	setdataloop
 83+  8B35
 84+  8B35
 85+  8B35              	; ----------------------------------------------------
 86+  8B35              	; - Petla wyswietlajaca FOV i zapisujaca do prev_fov -
 87+  8B35              	; ----------------------------------------------------
 88+  8B35 06 12        		ld	b,18				; ilosc mozliwych pol widzenia
 89+  8B37              printloop:
 90+  8B37 C5           		push	bc
 91+  8B38
 92+  8B38 21 BA 8B     		ld	hl,count_order		; podmiana licznika na liczacy
 93+  8B3B 58           		ld	e,b					; z dwoch stron fov do srodka
 94+  8B3C 16 00        		ld	d,0
 95+  8B3E 19           		add	hl,de				; w hl adres nowego licznika
 96+  8B3F
 97+  8B3F 7E           		ld	a,(hl)
 98+  8B40 32 B9 8B     		ld	(main_counter),a
 99+  8B43 FE 06        		cp	6					; Tylko dla Tile od 18 do 6
100+  8B45 D2 8E 8B     		jp	nc,is_visible		; Reszta zawsze widoczna.
101+  8B48              _vsbl:
102+  8B48              		; Ustawienie kursora
103+  8B48 21 2A 8C     		ld	hl,fov_list_end
104+  8B4B 3A B9 8B     		ld	a,(main_counter)
105+  8B4E 47           		ld	b,a
106+  8B4F 87           		add	a,a
107+  8B50 80           		add	a,b					; licznik x 3
108+  8B51 5F           		ld	e,a
109+  8B52 A7           		and	a					; carry  0
110+  8B53 ED 52        		sbc	hl,de				; Adres ( Y, X, char )
111+  8B55 46           		ld	b,(hl)				; Y
112+  8B56 23           		inc	hl
113+  8B57 4E           		ld	c,(hl)				; X
114+  8B58 23           		inc	hl
115+  8B59
116+  8B59              		; Tile na ekran
117+  8B59 CD AA 88     		call	gotoyx
118+  8B5C
119+  8B5C 7E           		ld	a,(hl)				; Tile char
120+  8B5D 47           		ld	b,a					; Save Tile char
121+  8B5E CD B9 88     		call	pchar
122+  8B61
123+  8B61 78           		ld	a,b					; Restore Tile.char
124+  8B62
125+  8B62              		; ustawia miganie tam gdzie ma byc
126+  8B62 FE 50        		cp	PORTAL_CHAR
127+  8B64 CA 77 89     		jp	z,flash_portal
128+  8B67
129+  8B67              _print3d
130+  8B67 FE 23        		cp	WALL_CHAR
131+  8B69 CA 88 8D     		jp	z,printwall_3d		; Sprite na ekran
132+  8B6C
133+  8B6C FE 2B        		cp	C_DOOR_CHAR
134+  8B6E CA 8F 8D     		jp	z,print_c_door_3d
135+  8B71
136+  8B71 FE 2F        		cp	O_DOOR_CHAR
137+  8B73 CA 96 8D     		jp	z,print_o_door_3d
138+  8B76
139+  8B76 FE 7E        		cp	KEY_CHAR
140+  8B78 CA 9D 8D     		jp	z,print_key_3d
141+  8B7B
142+  8B7B FE 28        		cp	WEAPON_CHAR
143+  8B7D CA A4 8D     		jp	z,print_weapon_3d
144+  8B80
145+  8B80 FE 5B        		cp	ARMOUR_CHAR
146+  8B82 CA AB 8D     		jp	z,print_armour_3d
147+  8B85
148+  8B85 FE 26        		cp	FIGURE_CHAR
149+  8B87 CA E4 8D     		jp	z,print_figure_3d
150+  8B8A              _printout:
151+  8B8A C1           		pop	bc
152+  8B8B 10 AA        		djnz	printloop
153+  8B8D C9           		ret
154+  8B8E
155+  8B8E              ;-----------------------------------
156+  8B8E              ; Sprawdza czy Tile jest widoczny
157+  8B8E              ; ( w A jest licznil petli funkji wywolujacej )
158+  8B8E              ;-----------------------------------
159+  8B8E              is_visible:
160+  8B8E 06 03        		ld	b,3				; 3 przebiegi petli
161+  8B90 D6 06        		sub	6				; brak zaslon dla pierwszych 5
162+  8B92 4F           		ld	c,a				; save i
163+  8B93 87           		add	a,a				; i x 2
164+  8B94 81           		add	a,c				; i x 3 (3 potencjalne zaslony)
165+  8B95 21 CD 8B     		ld	hl,list_indexes
166+  8B98 5F           		ld	e,a				; D wyzerowane  wyzej
167+  8B99 19           		add	hl,de			; wskaznik na index zaslony
168+  8B9A              _three:
169+  8B9A 7E           		ld	a,(hl)
170+  8B9B B7           		or	a
171+  8B9C CA 48 8B     		jp	z,_vsbl			; jak 0 - wypad
172+  8B9F
173+  8B9F DD 21 F4 8B  		ld	ix,fov_list		; od tego liczymy offsety
174+  8BA3 5F           		ld	e,a				; D wyzerowane  wyzej
175+  8BA4 DD 19        		add	ix,de
176+  8BA6 DD 7E 02     		ld	a,(ix+2)		; Tile.char do sprawdzenia!
177+  8BA9 FE 23        		cp	WALL_CHAR
178+  8BAB CA 8A 8B     		jp	z,_printout
179+  8BAE FE 2B        		cp	'+'
180+  8BB0 CA 8A 8B     		jp	z,_printout
181+  8BB3 23           		inc	hl
182+  8BB4 10 E4        		djnz	_three
183+  8BB6 C3 48 8B     		jp	_vsbl
184+  8BB9
185+  8BB9 00           main_counter:	db	0
186+  8BBA              ;-------------------------------------------------------
187+  8BBA              ; Sprite musza byc wyswietlane od zewnatrz fov do srodka
188+  8BBA              ; Stad petla jedzie z dwoch stron do srodka. Rzeczywisty
189+  8BBA              ; Licznik ( od 18 do 1 ) jest dodawany do tego adresu
190+  8BBA              ; i zdereferowany.
191+  8BBA              ;-----------------------------------------------------
192+  8BBA 00 01 02     count_order	db 	0,1,2
193+  8BBD 04 03 05     		db	4,3,5
194+  8BC0 07 06 08     		db	7,6,8
195+  8BC3 0B 0A 0C 09  		db	11,10,12,9,13
195+  8BC7 0D
196+  8BC8 10 0F 11 0E  		db	16,15,17,14,18
196+  8BCC 12
197+  8BCD
198+  8BCD              ;-----------------------------------------------------
199+  8BCD              ; Indexy listy fov_list do sprawdzania czy jest tam
200+  8BCD              ; cos, co zaslania ten Tile's
201+  8BCD              ; w celach optymalizacyjnych wstepnie przemnozone *3
202+  8BCD              ;-----------------------------------------------------
203+  8BCD              list_indexes   ; indeksy fov_list  | iteracje petli
204+  8BCD 2A 00 00     		db	14 *3,0,0			;06
205+  8BD0 2A 00 00     		db	14 *3,0,0			;07
206+  8BD3 2A 00 00     		db	14 *3,0,0			;08
207+  8BD6 2D 24 00     		db	15 *3,12 *3,0		;09
208+  8BD9 2A 21 00     		db	14 *3,11 *3,0		;10
209+  8BDC 2A 21 00     		db	14 *3,11 *3,0		;11
210+  8BDF 2A 21 00     		db	14 *3,11 *3,0		;12
211+  8BE2 27 1E 00     		db	13 *3,10 *3,0		;13
212+  8BE5 2D 24 18     		db	15 *3,12 *3,8 *3	;14
213+  8BE8 2A 24 18     		db	14 *3,12 *3,8 *3	;15
214+  8BEB 2A 21 15     		db	14 *3,11 *3,7 *3	;16
215+  8BEE 2A 1E 12     		db	14 *3,10 *3,6 *3	;17
216+  8BF1 27 1E 12     		db	13 *3,10 *3,6 *3	;18
217+  8BF4
218+  8BF4              ;--------------------------------------------------------------------------
219+  8BF4              ; Lista obiektow wszystkich obiektow tile potencjalnie widocznych dla Hero
220+  8BF4              ;--------------------------------------------------------------------------
221+  8BF4 00 00 00...  fov_list		ds	54			; ( Y, X, char ) x 18
222+  8C2A              fov_list_end
223+  8C2A 00 00 00...  prev_fov_list	ds	55			; jw. + DELIM
224+  8C61 00 00        iterator		dw	0000h		; iterator list
225+  8C63
226+  8C63              ; -----------------------------------------------------------------
227+  8C63              ; Offset'y tiles wzgledem Hero - wypelniane przez funkcje calc_fov
228+  8C63              ; -----------------------------------------------------------------
229+  8C63              fov_offsets:
230+  8C63 00 00 00...  fov_n:	ds	36 			; North
231+  8C87 00 00 00...  fov_e:	ds	36			; East
232+  8CAB 00 00 00...  fov_s:	ds	36			; South
233+  8CCF 00 00 00...  fov_w:	ds	36			; West
234+  8CF3              ; -----------------------------------------------------
235+  8CF3              ; Przesuniecia koordynatow tiles wzgledem Hero - stale
236+  8CF3              ; -----------------------------------------------------
237+  8CF3              fov_coords
238+  8CF3 FC FE FC FF  		db	-4,-2,  -4,-1,  -4,0,  -4,1,  -4,2
238+  8CF7 FC 00 FC 01
238+  8CFB FC 02
239+  8CFD FD FE FD FF  		db	-3,-2,  -3,-1,  -3,0,  -3,1,  -3,2
239+  8D01 FD 00 FD 01
239+  8D05 FD 02
240+  8D07 FE FF FE 00  		db	        -2,-1,  -2,0,  -2,1
240+  8D0B FE 01
241+  8D0D FF FF FF 00  		db	        -1,-1,  -1,0,  -1,1
241+  8D11 FF 01
242+  8D13 00 FF 00 01  		db	         0,-1,          0,1
243+  8D17
244+  8D17 FE 04 FF 04  		db	-2,4,  -1,4,  0,4,  1,4,  2,4
244+  8D1B 00 04 01 04
244+  8D1F 02 04
245+  8D21 FE 03 FF 03  		db	-2,3,  -1,3,  0,3,  1,3,  2,3
245+  8D25 00 03 01 03
245+  8D29 02 03
246+  8D2B FF 02 00 02  		db	       -1,2,  0,2,  1,2
246+  8D2F 01 02
247+  8D31 FF 01 00 01  		db	       -1,1,  0,1,  1,1
247+  8D35 01 01
248+  8D37 FF 00 01 00  		db	       -1,0,        1,0
249+  8D3B
250+  8D3B
251+  8D3B 04 02 04 01  		db	 4,2,  4,1,  4,0,  4,-1,  4,-2
251+  8D3F 04 00 04 FF
251+  8D43 04 FE
252+  8D45 03 02 03 01  		db	 3,2,  3,1,  3,0,  3,-1,  3,-2
252+  8D49 03 00 03 FF
252+  8D4D 03 FE
253+  8D4F 02 01 02 00  		db	       2,1,  2,0,  2,-1
253+  8D53 02 FF
254+  8D55 01 01 01 00  		db	       1,1,  1,0,  1,-1
254+  8D59 01 FF
255+  8D5B 00 01 00 FF  		db	       0,1,        0,-1
256+  8D5F
257+  8D5F 02 FC 01 FC  		db	 2,-4,  1,-4,  0,-4,  -1,-4,  -2,-4
257+  8D63 00 FC FF FC
257+  8D67 FE FC
258+  8D69 02 FD 01 FD  		db	 2,-3,  1,-3,  0,-3,  -1,-3,  -2,-3
258+  8D6D 00 FD FF FD
258+  8D71 FE FD
259+  8D73 01 FE 00 FE  		db	        1,-2,  0,-2,  -1,-2
259+  8D77 FF FE
260+  8D79 01 FF 00 FF  		db	        1,-1,  0,-1,  -1,-1
260+  8D7D FF FF
261+  8D7F 01 00 FF 00  		db	        1,0,        -1,0
262+  8D83              ; Tabela przesuniec w tabeli fov_coord. Przesuniecie zalezy od zwrotu Hero
263+  8D83 00 24 48 6C  fov_shift	db	0, 36, 72, 108
264+  8D87
265+  8D87              ; Pola wskaznikow
266+  8D87 00           counter		db	00h
267+  8D88
# file closed: fov.asm
632   8D88              		include 3d.asm
# file opened: 3d.asm
  1+  8D88              printwall_3d:
  2+  8D88 21 88 8F     		ld	hl,wall_sprites
  3+  8D8B 06 41        		ld	b,W3D_ATR
  4+  8D8D 18 21        		jr	_common
  5+  8D8F              print_c_door_3d:
  6+  8D8F 21 B7 90     		ld	hl,c_door_sprites
  7+  8D92 06 41        		ld	b,W3D_ATR
  8+  8D94 18 1A        		jr	_common
  9+  8D96              print_o_door_3d:
 10+  8D96 21 D2 91     		ld	hl,o_door_sprites
 11+  8D99 06 41        		ld	b,W3D_ATR
 12+  8D9B 18 13        		jr	_common
 13+  8D9D              print_key_3d:
 14+  8D9D 21 20 92     		ld	hl,key_sprites
 15+  8DA0 06 02        		ld	b,KEY_ATR
 16+  8DA2 18 0C        		jr	_common
 17+  8DA4              print_weapon_3d:
 18+  8DA4 21 6E 92     		ld	hl,weapon_sprites
 19+  8DA7 06 05        		ld	b,WEAPON_ATR
 20+  8DA9 18 05        		jr	_common
 21+  8DAB              print_armour_3d:
 22+  8DAB 21 BC 92     		ld	hl,armour_sprites
 23+  8DAE 06 06        		ld	b,ARMOUR_ATR
 24+  8DB0
 25+  8DB0              _common
 26+  8DB0 08           		ex	af,af'
 27+  8DB1 78           		ld	a,b
 28+  8DB2 08           		ex	af,af'
 29+  8DB3 3A B9 8B     		ld	a,(main_counter)
 30+  8DB6 3D           		dec	a
 31+  8DB7 87           		add	a,a
 32+  8DB8 16 00        		ld	d,0
 33+  8DBA 5F           		ld	e,a
 34+  8DBB 19           		add	hl,de			; adres wskaznika na Sprite
 35+  8DBC 5E           		ld	e,(hl)
 36+  8DBD 23           		inc	hl
 37+  8DBE 56           		ld	d,(hl)			; iterator DE na Sprite
 38+  8DBF
 39+  8DBF              _direct
 40+  8DBF 1A           		ld	a,(de)
 41+  8DC0 B7           		or	a				; jesli zero to nie ma sprite'a
 42+  8DC1 CA 8A 8B     		jp	z,_printout		; w tej pozycji, a wiec wypad
 43+  8DC4 47           		ld	b,a				; licznik lini ustawiony
 44+  8DC5 13           		inc	de				; iterator na Y
 45+  8DC6              _nxt
 46+  8DC6 C5           		push	bc			; SAVE licznik
 47+  8DC7 1A           		ld	a,(de)
 48+  8DC8 47           		ld	b,a
 49+  8DC9 13           		inc	de				; iterator na X
 50+  8DCA 1A           		ld	a,(de)
 51+  8DCB 4F           		ld	c,a				; offset Y,X w BC
 52+  8DCC 21 04 01     		ld	hl,W3D_YX
 53+  8DCF 09           		add	hl,bc			; dodanie pozycji okna 3D
 54+  8DD0 44           		ld	b,h
 55+  8DD1 4D           		ld	c,l				; Y, X ekranu dla poczatku lini Tile w BC
 56+  8DD2
 57+  8DD2 D5           		push	de				; SAVE iterator
 58+  8DD3 CD AA 88     		call	gotoyx			; Kursor ustawiony
 59+  8DD6
 60+  8DD6 C1           		pop	bc					; RESTORE iterator
 61+  8DD7 03           		inc	bc					; tenze na pierwszym bajcie Tile
 62+  8DD8 CD E6 88     		call	print_tile_line
 63+  8DDB              								; iterator BC na TILE_EOL
 64+  8DDB 03           		inc	bc
 65+  8DDC 50           		ld	d,b
 66+  8DDD 59           		ld	e,c					; iterator DE na Y nastepnej lini Tile
 67+  8DDE
 68+  8DDE C1           		pop		bc				; RESTORE licznik
 69+  8DDF 10 E5        		djnz	_nxt
 70+  8DE1 C3 8A 8B     		jp	_printout
 71+  8DE4
 72+  8DE4              print_figure_3d:
 73+  8DE4 3A B9 8B     		ld	a,(main_counter)
 74+  8DE7 FE 04        		cp	4					; stwor przed Hero
 75+  8DE9 C2 8A 8B     		jp	nz,_printout
 76+  8DEC
 77+  8DEC 11 E0 92     		ld	de,f04
 78+  8DEF 08           		ex	af,af'
 79+  8DF0 3E 07        		ld	a,FIGURE_ATR
 80+  8DF2 08           		ex	af,af'
 81+  8DF3 18 CA        		jr	_direct
 82+  8DF5
 83+  8DF5              		include figure.asm
# file opened: figure.asm
  1++ 8DF5              talk_figure:
  2++ 8DF5 3A 7A 93     		ld	a,(hero.stat.str)
  3++ 8DF8 FE 0B        		cp	11
  4++ 8DFA 38 20        		jr	c,_insf
  5++ 8DFC 3A 7B 93     		ld	a,(hero.stat.def)
  6++ 8DFF FE 09        		cp	9
  7++ 8E01 38 19        		jr	c,_insf
  8++ 8E03 E5           		push	hl
  9++ 8E04              		PRINT_STR	MSG_LINE1 + 2, talk_ready
  9++ 8E04 11 22 48    >		ld	de,MSG_LINE1 + 2
  9++ 8E07 01 55 8E    >		ld	bc,talk_ready
  9++ 8E0A CD 33 89    >		call	pstring
 10++ 8E0D              		PRINT_STR	MSG_LINE2 + 1, talk_nxt_lvl
 10++ 8E0D 11 41 48    >		ld	de,MSG_LINE2 + 1
 10++ 8E10 01 64 8E    >		ld	bc,talk_nxt_lvl
 10++ 8E13 CD 33 89    >		call	pstring
 11++ 8E16 E1           		pop		hl
 12++ 8E17 36 20        		ld	(hl),FLOOR_CHAR
 13++ 8E19 C3 20 85     		jp	refresh
 14++ 8E1C              _insf
 15++ 8E1C              		PRINT_STR	MSG_LINE1 + 1, talk_insf_str
 15++ 8E1C 11 21 48    >		ld	de,MSG_LINE1 + 1
 15++ 8E1F 01 31 8E    >		ld	bc,talk_insf_str
 15++ 8E22 CD 33 89    >		call	pstring
 16++ 8E25              		PRINT_STR	MSG_LINE2 + 2, talk_insf_def
 16++ 8E25 11 42 48    >		ld	de,MSG_LINE2 + 2
 16++ 8E28 01 43 8E    >		ld	bc,talk_insf_def
 16++ 8E2B CD 33 89    >		call	pstring
 17++ 8E2E C3 56 85     		jp	wait_release
 18++ 8E31
 19++ 8E31 4E 65 65 64  talk_insf_str	db	"Need Hand Trowel.$"
 19++ 8E35 20 48 61 6E
 19++ 8E39 64 20 54 72
 19++ 8E3D 6F 77 65 6C
 19++ 8E41 2E 24
 20++ 8E43 26 20 4C 65  talk_insf_def	db	"& Leather Gloves.$"
 20++ 8E47 61 74 68 65
 20++ 8E4B 72 20 47 6C
 20++ 8E4F 6F 76 65 73
 20++ 8E53 2E 24
 21++ 8E55 59 6F 75 20  talk_ready		db	"You are Ready!$"
 21++ 8E59 61 72 65 20
 21++ 8E5D 52 65 61 64
 21++ 8E61 79 21 24
 22++ 8E64 4E 65 78 74  talk_nxt_lvl	db	"Next level ahead!$"
 22++ 8E68 20 6C 65 76
 22++ 8E6C 65 6C 20 61
 22++ 8E70 68 65 61 64
 22++ 8E74 21 24
 23++ 8E76
# file closed: figure.asm
 84+  8E76              		include data/sprites.dat
# file opened: sprites.dat
  1++ 8E76
  2++ 8E76              ;	--------   sciany  ---------
  3++ 8E76              ;w18			db	0
  4++ 8E76              ;w17			db	0
  5++ 8E76              ;w16			db	0
  6++ 8E76              ;w15			db	0
  7++ 8E76              ;w14			db	0
  8++ 8E76 01           w18		db	1
  9++ 8E77 03 00 2C 2C  		db	3, 0,		44, 44, $FF
  9++ 8E7B FF
 10++ 8E7C
 11++ 8E7C 01           w17		db	1
 12++ 8E7D 03 02 2C 2C  		db	3, 2,		44, 44, $FF
 12++ 8E81 FF
 13++ 8E82
 14++ 8E82 01           w16		db	1
 15++ 8E83 03 04 2C FF  		db	3, 4,		44, $FF
 16++ 8E87
 17++ 8E87 01           w15		db	1
 18++ 8E88 03 05 2C 2C  		db	3, 5,		44, 44, $FF
 18++ 8E8C FF
 19++ 8E8D
 20++ 8E8D 01           w14		db	1
 21++ 8E8E 03 07 2C 2C  		db	3, 7,		44, 44, $FF
 21++ 8E92 FF
 22++ 8E93
 23++ 8E93 02           w13		db	2
 24++ 8E94 02 00 26 26  		db	2, 0,		38, 38, 42, $FF
 24++ 8E98 2A FF
 25++ 8E9A 03 00 27 27  		db  3, 0,		39, 39, 43, $FF
 25++ 8E9E 2B FF
 26++ 8EA0
 27++ 8EA0              ;w12		db	2
 28++ 8EA0              ;		db	2, 2,		38, 38, $FF
 29++ 8EA0              ;		db  3, 2,		39, 39, $FF
 30++ 8EA0
 31++ 8EA0 02           w12		db	2
 32++ 8EA1 02 02 26 26  		db	2, 2,		38, 38, 42, $FF
 32++ 8EA5 2A FF
 33++ 8EA7 03 02 27 27  		db  3, 2,		39, 39, 43, $FF
 33++ 8EAB 2B FF
 34++ 8EAD
 35++ 8EAD
 36++ 8EAD 02           w11		db	2
 37++ 8EAE 02 04 26 FF  		db	2, 4,		38, $FF
 38++ 8EB2 03 04 27 FF  		db  3, 4,		39, $FF
 39++ 8EB6
 40++ 8EB6              ;w10		db	2
 41++ 8EB6              ;		db	2, 5,		38, 38, $FF
 42++ 8EB6              ;		db  3, 5,		39, 39, $FF
 43++ 8EB6
 44++ 8EB6 02           w10		db	2
 45++ 8EB7 02 04 28 26  		db	2, 4,		40, 38, 38, $FF
 45++ 8EBB 26 FF
 46++ 8EBD 03 04 29 27  		db  3, 4,		41, 39, 39, $FF
 46++ 8EC1 27 FF
 47++ 8EC3
 48++ 8EC3 02           w09		db	2
 49++ 8EC4 02 06 28 26  		db	2, 6,		40, 38, 38, $FF
 49++ 8EC8 26 FF
 50++ 8ECA 03 06 29 27  		db  3, 6,		41, 39, 39, $FF
 50++ 8ECE 27 FF
 51++ 8ED0
 52++ 8ED0 02           w08		db	2
 53++ 8ED1 02 00 20 21  		db	2, 0,		32, 33, 33, 34, $FF
 53++ 8ED5 21 22 FF
 54++ 8ED8 03 00 20 21  		db  3, 0,		32, 33, 33, 35, $FF
 54++ 8EDC 21 23 FF
 55++ 8EDF
 56++ 8EDF 02           w07		db	2
 57++ 8EE0 02 03 20 21  		db	2, 3,		32, 33, 33, $FF
 57++ 8EE4 21 FF
 58++ 8EE6 03 03 20 21  		db  3, 3,		32, 33, 33, $FF
 58++ 8EEA 21 FF
 59++ 8EEC
 60++ 8EEC 02           w06		db	2
 61++ 8EED 02 05 24 20  		db	2, 5,		36, 32, 33, 33, $FF
 61++ 8EF1 21 21 FF
 62++ 8EF4 03 05 25 20  		db  3, 5,		37, 32, 33, 33, $FF
 62++ 8EF8 21 21 FF
 63++ 8EFB
 64++ 8EFB 04           w05		db	4
 65++ 8EFC 01 00 03 10  		db	1, 0,		3, 16, 17, $FF
 65++ 8F00 11 FF
 66++ 8F02 02 00 02 12  		db  2, 0,		2, 18, 19, $FF
 66++ 8F06 13 FF
 67++ 8F08 03 00 01 14  		db  3, 0,		1, 20, 21, $FF
 67++ 8F0C 15 FF
 68++ 8F0E 04 00 00 16  		db  4, 0,		0, 22, 23, $FF
 68++ 8F12 17 FF
 69++ 8F14
 70++ 8F14 04           w04		db	4
 71++ 8F15 01 01 02 00  		db	1, 1,	2, 0, 1, 0, 1, 2, 3, $FF
 71++ 8F19 01 00 01 02
 71++ 8F1D 03 FF
 72++ 8F1F 02 01 00 03  		db	2, 1,	0, 3, 0, 1, 2, 1, 2, $FF
 72++ 8F23 00 01 02 01
 72++ 8F27 02 FF
 73++ 8F29 03 01 02 00  		db	3, 1,	2, 0, 1, 2, 1, 0, 1, $FF
 73++ 8F2D 01 02 01 00
 73++ 8F31 01 FF
 74++ 8F33 04 01 00 01  		db	4, 1,	0, 1, 0, 1, 2, 1, 0, $FF
 74++ 8F37 00 01 02 01
 74++ 8F3B 00 FF
 75++ 8F3D
 76++ 8F3D 04           w03		db	4
 77++ 8F3E 01 06 18 19  		db	1, 6,		24, 25, 2, $FF
 77++ 8F42 02 FF
 78++ 8F44 02 06 1A 1B  		db  2, 6,		26, 27, 0, $FF
 78++ 8F48 00 FF
 79++ 8F4A 03 06 1C 1D  		db  3, 6,		28, 29, 2, $FF
 79++ 8F4E 02 FF
 80++ 8F50 04 06 1E 1F  		db  4, 6,		30, 31, 0, $FF
 80++ 8F54 00 FF
 81++ 8F56
 82++ 8F56 06           w02		db	6
 83++ 8F57 00 00 04 FF  		db	0, 0,		4, $FF
 84++ 8F5B 01 00 05 FF  		db  1, 0,		5, $FF
 85++ 8F5F 02 00 06 FF  		db  2, 0,		6, $FF
 86++ 8F63 03 00 07 FF  		db  3, 0,		7, $FF
 87++ 8F67 04 00 08 FF  		db  4, 0,		8, $FF
 88++ 8F6B 05 00 09 FF  		db  5, 0,		9, $FF
 89++ 8F6F
 90++ 8F6F 06           w01		db	6
 91++ 8F70 00 08 0A FF  		db	0, 8,		10, $FF
 92++ 8F74 01 08 0B FF  		db  1, 8,		11, $FF
 93++ 8F78 02 08 0C FF  		db  2, 8,		12, $FF
 94++ 8F7C 03 08 0D FF  		db  3, 8,		13, $FF
 95++ 8F80 04 08 0E FF  		db  4, 8,		14, $FF
 96++ 8F84 05 08 0F FF  		db  5, 8,		15, $FF
 97++ 8F88
 98++ 8F88 6F 8F 56 8F  wall_sprites	dw	    w01,    w02
 99++ 8F8C 3D 8F 14 8F  				dw	    w03,w04,w05
 99++ 8F90 FB 8E
100++ 8F92 EC 8E DF 8E  				dw	    w06,w07,w08
100++ 8F96 D0 8E
101++ 8F98 C3 8E B6 8E  				dw	w09,w10,w11,w12,w13
101++ 8F9C AD 8E A0 8E
101++ 8FA0 93 8E
102++ 8FA2 8D 8E 87 8E  				dw	w14,w15,w16,w17,w18
102++ 8FA6 82 8E 7C 8E
102++ 8FAA 76 8E
103++ 8FAC
104++ 8FAC              ;  ------  drzwi zamkniete  --------
105++ 8FAC              ;d18			db	0
106++ 8FAC              ;d17			db	0
107++ 8FAC              ;d16			db	0
108++ 8FAC              ;d15			db	0
109++ 8FAC              ;d14			db	0
110++ 8FAC 01           d18		db	1
111++ 8FAD 03 00 2C 2C  		db	3, 0,		44, 44, $FF
111++ 8FB1 FF
112++ 8FB2 01           d17		db	1
113++ 8FB3 03 02 2C 2C  		db	3, 2,		44, 44, $FF
113++ 8FB7 FF
114++ 8FB8 01           d16		db	1
115++ 8FB9 03 04 2C FF  		db	3, 4,		44, $FF
116++ 8FBD 01           d15		db	1
117++ 8FBE 03 05 2C 2C  		db	3, 5,		44, 44, $FF
117++ 8FC2 FF
118++ 8FC3 01           d14		db	1
119++ 8FC4              ;		db	3, 7,		44, 44, $FF
120++ 8FC4 02           d13		db	2
121++ 8FC5 02 00 26 26  		db	2, 0,		38, 38, 42, $FF
121++ 8FC9 2A FF
122++ 8FCB 03 00 27 27  		db  3, 0,		39, 39, 43, $FF
122++ 8FCF 2B FF
123++ 8FD1              ;d12		db	2
124++ 8FD1              ;		db	2, 2,		38, 38, 42, $FF
125++ 8FD1              ;		db  3, 2,		39, 39, 43, $FF
126++ 8FD1 02           d12		db	2
127++ 8FD2 02 02 26 26  		db	2, 2,		38, 38, $FF
127++ 8FD6 FF
128++ 8FD7 03 02 27 27  		db  3, 2,		39, 39, $FF
128++ 8FDB FF
129++ 8FDC 02           d11		db	2
130++ 8FDD 02 04 48 FF  		db	2, 4,		72, $FF
131++ 8FE1 03 04 49 FF  		db  3, 4,		73, $FF
132++ 8FE5 02           d10		db	2
133++ 8FE6 02 04 28 26  		db	2, 4,		40, 38, 38, $FF
133++ 8FEA 26 FF
134++ 8FEC 03 04 29 27  		db  3, 4,		41, 39, 39, $FF
134++ 8FF0 27 FF
135++ 8FF2              ;d10		db	2
136++ 8FF2              ;		db	2, 5,		38, 38, $FF
137++ 8FF2              ;		db  3, 5,		39, 39, $FF
138++ 8FF2 02           d09		db	2
139++ 8FF3 02 06 28 26  		db	2, 6,		40, 38, 38, $FF
139++ 8FF7 26 FF
140++ 8FF9 03 06 29 27  		db  3, 6,		41, 39, 39, $FF
140++ 8FFD 27 FF
141++ 8FFF 02           d08		db	2
142++ 9000 02 00 20 21  		db	2, 0,		32, 33, 33, 34, $FF
142++ 9004 21 22 FF
143++ 9007 03 00 20 21  		db  3, 0,		32, 33, 33, 35, $FF
143++ 900B 21 23 FF
144++ 900E 02           d07		db	2
145++ 900F 02 03 44 46  		db	2, 3,		68, 70, 69, $FF
145++ 9013 45 FF
146++ 9015 03 03 44 47  		db  3, 3,		68, 71, 69, $FF
146++ 9019 45 FF
147++ 901B 02           d06		db	2
148++ 901C 02 05 24 20  		db	2, 5,		36, 32, 33, 33, $FF
148++ 9020 21 21 FF
149++ 9023 03 05 25 20  		db  3, 5,		37, 32, 33, 33, $FF
149++ 9027 21 21 FF
150++ 902A 04           d05		db	4
151++ 902B 01 00 03 3C  		db	1, 0,		3, 60, 61, $FF
151++ 902F 3D FF
152++ 9031 02 00 02 3E  		db  2, 0,		2, 62, 63, $FF
152++ 9035 3F FF
153++ 9037 03 00 01 40  		db  3, 0,		1, 64, 65, $FF
153++ 903B 41 FF
154++ 903D 04 00 00 42  		db  4, 0,		0, 66, 67, $FF
154++ 9041 43 FF
155++ 9043 04           d04		db	4
156++ 9044 01 01 02 00  		db	1, 1,	2, 0, 51, 46, 45, 2, 3, $FF
156++ 9048 33 2E 2D 02
156++ 904C 03 FF
157++ 904E 02 01 00 03  		db	2, 1,	0, 3, 47, 50, 48, 0, 2, $FF
157++ 9052 2F 32 30 00
157++ 9056 02 FF
158++ 9058 03 01 02 00  		db	3, 1,	2, 0, 47, 50, 49, 0, 1, $FF
158++ 905C 2F 32 31 00
158++ 9060 01 FF
159++ 9062 04 01 00 01  		db	4, 1,	0, 1, 51, 46, 45, 0, 0, $FF
159++ 9066 33 2E 2D 00
159++ 906A 00 FF
160++ 906C 04           d03		db	4
161++ 906D 01 06 34 35  		db	1, 6,		52, 53, 2, $FF
161++ 9071 02 FF
162++ 9073 02 06 36 37  		db  2, 6,		54, 55, 0, $FF
162++ 9077 00 FF
163++ 9079 03 06 38 39  		db  3, 6,		56, 57, 2, $FF
163++ 907D 02 FF
164++ 907F 04 06 3A 3B  		db  4, 6,		58, 59, 0, $FF
164++ 9083 00 FF
165++ 9085 06           d02		db	6
166++ 9086 00 00 04 FF  		db	0, 0,		4, $FF
167++ 908A 01 00 05 FF  		db  1, 0,		5, $FF
168++ 908E 02 00 06 FF  		db  2, 0,		6, $FF
169++ 9092 03 00 07 FF  		db  3, 0,		7, $FF
170++ 9096 04 00 08 FF  		db  4, 0,		8, $FF
171++ 909A 05 00 09 FF  		db  5, 0,		9, $FF
172++ 909E 06           d01		db	6
173++ 909F 00 08 0A FF  		db	0, 8,		10, $FF
174++ 90A3 01 08 0B FF  		db  1, 8,		11, $FF
175++ 90A7 02 08 0C FF  		db  2, 8,		12, $FF
176++ 90AB 03 08 0D FF  		db  3, 8,		13, $FF
177++ 90AF 04 08 0E FF  		db  4, 8,		14, $FF
178++ 90B3 05 08 0F FF  		db  5, 8,		15, $FF
179++ 90B7
180++ 90B7 9E 90 85 90  c_door_sprites	dw	    d01,    d02
181++ 90BB 6C 90 43 90  		dw			    d03,d04,d05
181++ 90BF 2A 90
182++ 90C1 1B 90 0E 90  		dw				d06,d07,d08
182++ 90C5 FF 8F
183++ 90C7 F2 8F E5 8F  		dw			d09,d10,d11,d12,d13
183++ 90CB DC 8F D1 8F
183++ 90CF C4 8F
184++ 90D1 C3 8F BD 8F  		dw			d14,d15,d16,d17,d18
184++ 90D5 B8 8F B2 8F
184++ 90D9 AC 8F
185++ 90DB
186++ 90DB              ;  ------  drzwi otwarte  --------
187++ 90DB              ;o18			db	0
188++ 90DB              ;o17			db	0
189++ 90DB              ;o16			db	0
190++ 90DB              ;o15			db	0
191++ 90DB              ;o14			db	0
192++ 90DB 01           o18		db	1
193++ 90DC 03 00 2C 2C  		db	3, 0,		44, 44, $FF
193++ 90E0 FF
194++ 90E1 01           o17		db	1
195++ 90E2 03 02 2C 2C  		db	3, 2,		44, 44, $FF
195++ 90E6 FF
196++ 90E7 01           o16		db	1
197++ 90E8 03 04 2C FF  		db	3, 4,		44, $FF
198++ 90EC 01           o15		db	1
199++ 90ED 03 05 2C 2C  		db	3, 5,		44, 44, $FF
199++ 90F1 FF
200++ 90F2 01           o14		db	1
201++ 90F3              ;		db	3, 7,		44, 44, $FF
202++ 90F3 02           o13		db	2
203++ 90F4 02 00 26 26  		db	2, 0,		38, 38, 42, $FF
203++ 90F8 2A FF
204++ 90FA 03 00 27 27  		db  3, 0,		39, 39, 43, $FF
204++ 90FE 2B FF
205++ 9100              ;o12		db	2
206++ 9100              ;		db	2, 2,		38, 38, 42, $FF
207++ 9100              ;		db  3, 2,		39, 39, 43, $FF
208++ 9100 02           o12		db	2
209++ 9101 02 02 26 26  		db	2, 2,		38, 38, $FF
209++ 9105 FF
210++ 9106 03 02 27 27  		db  3, 2,		39, 39, $FF
210++ 910A FF
211++ 910B 00           o11		db	0
212++ 910C              ;o11		db	2
213++ 910C              ;		db	2, 4,		38, $FF
214++ 910C              ;		db  3, 4,		39, $FF
215++ 910C 02           o10		db	2
216++ 910D 02 04 28 26  		db	2, 4,		40, 38, 38, $FF
216++ 9111 26 FF
217++ 9113 03 04 29 27  		db  3, 4,		41, 39, 39, $FF
217++ 9117 27 FF
218++ 9119              ;o10		db	2
219++ 9119              ;		db	2, 5,		38, 38, $FF
220++ 9119              ;		db  3, 5,		39, 39, $FF
221++ 9119 02           o09		db	2
222++ 911A 02 06 28 26  		db	2, 6,		40, 38, 38, $FF
222++ 911E 26 FF
223++ 9120 03 06 29 27  		db  3, 6,		41, 39, 39, $FF
223++ 9124 27 FF
224++ 9126 02           o08		db	2
225++ 9127 02 00 20 21  		db	2, 0,		32, 33, 33, 34, $FF
225++ 912B 21 22 FF
226++ 912E 03 00 20 21  		db  3, 0,		32, 33, 33, 35, $FF
226++ 9132 21 23 FF
227++ 9135 04           o07		db	4
228++ 9136 02 03 20 FF  		db	2, 3,		32, $FF
229++ 913A 03 03 20 FF  		db  3, 3,		32, $FF
230++ 913E 02 05 20 FF  		db	2, 5,		32, $FF
231++ 9142 03 05 20 FF  		db  3, 5,		32, $FF
232++ 9146 02           o06		db	2
233++ 9147 02 05 24 20  		db	2, 5,		36, 32, 33, 33, $FF
233++ 914B 21 21 FF
234++ 914E 03 05 25 20  		db  3, 5,		37, 32, 33, 33, $FF
234++ 9152 21 21 FF
235++ 9155              o05
236++ 9155 04           		db	4
237++ 9156 01 01 3C FF  		db	1, 1,		60, $FF
238++ 915A 02 01 3E FF  		db  2, 1,		62, $FF
239++ 915E 03 01 40 FF  		db  3, 1,		64, $FF
240++ 9162 04 01 42 FF  		db  4, 1,		66, $FF
241++ 9166
242++ 9166              ;o05		db	4
243++ 9166              ;		db	1, 0,		3, 60, 61, $FF
244++ 9166              ;		db  2, 0,		2, 62, 63, $FF
245++ 9166              ;		db  3, 0,		1, 64, 65, $FF
246++ 9166              ;		db  4, 0,		0, 66, 67, $FF
247++ 9166 08           o04		db	8
248++ 9167 01 01 02 00  		db	1, 1,		2, 0, $FF, 1, 6,	2, 3, $FF
248++ 916B FF 01 06 02
248++ 916F 03 FF
249++ 9171 02 01 00 03  		db	2, 1,		0, 3, $FF, 2, 6,	0, 2, $FF
249++ 9175 FF 02 06 00
249++ 9179 02 FF
250++ 917B 03 01 02 00  		db	3, 1,		2, 0, $FF, 3, 6,	0, 1, $FF
250++ 917F FF 03 06 00
250++ 9183 01 FF
251++ 9185 04 01 00 01  		db	4, 1,		0, 1, $FF, 4, 6,	0, 0, $FF
251++ 9189 FF 04 06 00
251++ 918D 00 FF
252++ 918F 04           o03		db	4
253++ 9190 01 06 34 FF  		db	1, 6,		 52, $FF
254++ 9194 02 06 36 FF  		db  2, 6,		 54, $FF
255++ 9198 03 06 38 FF  		db  3, 6,		 56, $FF
256++ 919C 04 06 3A FF  		db  4, 6,		 58, $FF
257++ 91A0              ;		db	1, 6,		52, 53, 2, $FF
258++ 91A0              ;		db  2, 6,		54, 55, 0, $FF
259++ 91A0              ;		db  3, 6,		56, 57, 2, $FF
260++ 91A0              ;		db  4, 6,		58, 59, 0, $FF
261++ 91A0 06           o02		db	6
262++ 91A1 00 00 04 FF  		db	0, 0,		4, $FF
263++ 91A5 01 00 05 FF  		db  1, 0,		5, $FF
264++ 91A9 02 00 06 FF  		db  2, 0,		6, $FF
265++ 91AD 03 00 07 FF  		db  3, 0,		7, $FF
266++ 91B1 04 00 08 FF  		db  4, 0,		8, $FF
267++ 91B5 05 00 09 FF  		db  5, 0,		9, $FF
268++ 91B9 06           o01		db	6
269++ 91BA 00 08 0A FF  		db	0, 8,		10, $FF
270++ 91BE 01 08 0B FF  		db  1, 8,		11, $FF
271++ 91C2 02 08 0C FF  		db  2, 8,		12, $FF
272++ 91C6 03 08 0D FF  		db  3, 8,		13, $FF
273++ 91CA 04 08 0E FF  		db  4, 8,		14, $FF
274++ 91CE 05 08 0F FF  		db  5, 8,		15, $FF
275++ 91D2
276++ 91D2              o_door_sprites
277++ 91D2 B9 91 A0 91  				dw	    o01,    o02
278++ 91D6 8F 91 66 91  				dw	    o03,o04,o05
278++ 91DA 55 91
279++ 91DC 46 91 35 91  				dw	    o06,o07,o08
279++ 91E0 26 91
280++ 91E2 19 91 0C 91  				dw	o09,o10,o11,o12,o13
280++ 91E6 0B 91 00 91
280++ 91EA F3 90
281++ 91EC F2 90 EC 90  				dw	o14,o15,o16,o17,o18
281++ 91F0 E7 90 E1 90
281++ 91F4 DB 90
282++ 91F6
283++ 91F6              ;	-----	klucze  -----
284++ 91F6 00           k18		db	0
285++ 91F7 00           k17		db	0
286++ 91F8 00           k16		db	0
287++ 91F9 00           k15		db	0
288++ 91FA 00           k14		db	0
289++ 91FB 00           k13		db	0
290++ 91FC 00           k12		db	0
291++ 91FD 00           k11		db	0
292++ 91FE 00           k10		db	0
293++ 91FF 00           k09		db	0
294++ 9200 01           k08		db	1
295++ 9201 04 01 59 FF  		db	4, 1,		89, $FF
296++ 9205 01           k07		db	1
297++ 9206 04 04 59 FF  		db	4, 4,		89, $FF
298++ 920A 01           k06		db	1
299++ 920B 04 07 59 FF  		db	4, 7,		89, $FF
300++ 920F 01           k05		db	1
301++ 9210 04 01 58 FF  		db	4, 1,		88, $FF
302++ 9214 01           k04		db	1
303++ 9215 04 04 58 FF  		db	4, 4,		88, $FF
304++ 9219 01           k03		db	1
305++ 921A 04 07 58 FF  		db	4, 7,		88, $FF
306++ 921E 00           k02		db	0
307++ 921F 00           k01		db	0
308++ 9220
309++ 9220              key_sprites
310++ 9220 1F 92 1E 92  		dw			    k01,    k02
311++ 9224 19 92 14 92  		dw			    k03,k04,k05
311++ 9228 0F 92
312++ 922A 0A 92 05 92  		dw				k06,k07,k08
312++ 922E 00 92
313++ 9230 FF 91 FE 91  		dw			k09,k10,k11,k12,k13
313++ 9234 FD 91 FC 91
313++ 9238 FB 91
314++ 923A FA 91 F9 91  		dw			k14,k15,k16,k17,k18
314++ 923E F8 91 F7 91
314++ 9242 F6 91
315++ 9244
316++ 9244              ;	-----	bronie  -----
317++ 9244 00           b18		db	0
318++ 9245 00           b17		db	0
319++ 9246 00           b16		db	0
320++ 9247 00           b15		db	0
321++ 9248 00           b14		db	0
322++ 9249 00           b13		db	0
323++ 924A 00           b12		db	0
324++ 924B 00           b11		db	0
325++ 924C 00           b10		db	0
326++ 924D 00           b09		db	0
327++ 924E 01           b08		db	1
328++ 924F 04 01 59 FF  		db	4, 1,		89, $FF
329++ 9253 01           b07		db	1
330++ 9254 04 04 59 FF  		db	4, 4,		89, $FF
331++ 9258 01           b06		db	1
332++ 9259 04 07 59 FF  		db	4, 7,		89, $FF
333++ 925D 01           b05		db	1
334++ 925E 04 01 5A FF  		db	4, 1,		90, $FF
335++ 9262 01           b04		db	1
336++ 9263 04 04 5A FF  		db	4, 4,		90, $FF
337++ 9267 01           b03		db	1
338++ 9268 04 07 5A FF  		db	4, 7,		90, $FF
339++ 926C 00           b02		db	0
340++ 926D 00           b01		db	0
341++ 926E
342++ 926E              weapon_sprites
343++ 926E 6D 92 6C 92  		dw			    b01,    b02
344++ 9272 67 92 62 92  		dw			    b03,b04,b05
344++ 9276 5D 92
345++ 9278 58 92 53 92  		dw				b06,b07,b08
345++ 927C 4E 92
346++ 927E 4D 92 4C 92  		dw			b09,b10,b11,b12,b13
346++ 9282 4B 92 4A 92
346++ 9286 49 92
347++ 9288 48 92 47 92  		dw			b14,b15,b16,b17,b18
347++ 928C 46 92 45 92
347++ 9290 44 92
348++ 9292
349++ 9292              ;	-----	zbroje  -----
350++ 9292 00           a18		db	0
351++ 9293 00           a17		db	0
352++ 9294 00           a16		db	0
353++ 9295 00           a15		db	0
354++ 9296 00           a14		db	0
355++ 9297 00           a13		db	0
356++ 9298 00           a12		db	0
357++ 9299 00           a11		db	0
358++ 929A 00           a10		db	0
359++ 929B 00           a09		db	0
360++ 929C 01           a08		db	1
361++ 929D 04 01 59 FF  		db	4, 1,		89, $FF
362++ 92A1 01           a07		db	1
363++ 92A2 04 04 59 FF  		db	4, 4,		89, $FF
364++ 92A6 01           a06		db	1
365++ 92A7 04 07 59 FF  		db	4, 7,		89, $FF
366++ 92AB 01           a05		db	1
367++ 92AC 04 01 5B FF  		db	4, 1,		91, $FF
368++ 92B0 01           a04		db	1
369++ 92B1 04 04 5B FF  		db	4, 4,		91, $FF
370++ 92B5 01           a03		db	1
371++ 92B6 04 07 5B FF  		db	4, 7,		91, $FF
372++ 92BA 00           a02		db	0
373++ 92BB 00           a01		db	0
374++ 92BC
375++ 92BC              armour_sprites
376++ 92BC BB 92 BA 92  		dw			    a01,    a02
377++ 92C0 B5 92 B0 92  		dw			    a03,a04,a05
377++ 92C4 AB 92
378++ 92C6 A6 92 A1 92  		dw				a06,a07,a08
378++ 92CA 9C 92
379++ 92CC 9B 92 9A 92  		dw			a09,a10,a11,a12,a13
379++ 92D0 99 92 98 92
379++ 92D4 97 92
380++ 92D6 96 92 95 92  		dw			a14,a15,a16,a17,a18
380++ 92DA 94 92 93 92
380++ 92DE 92 92
381++ 92E0
382++ 92E0              ;	----- postacie ------
383++ 92E0 06           f04		db	6
384++ 92E1 00 04 5C 5D  		db	0, 4,		92, 93, $FF
384++ 92E5 FF
385++ 92E6 01 04 5E 5F  		db	1, 4,		94, 95, $FF
385++ 92EA FF
386++ 92EB 02 03 60 61  		db	2, 3,		96, 97, 98, $FF
386++ 92EF 62 FF
387++ 92F1 03 03 63 64  		db	3, 3,		99, 100, 101, $FF
387++ 92F5 65 FF
388++ 92F7 04 04 66 67  		db	4, 4,		102, 103, $FF
388++ 92FB FF
389++ 92FC 05 04 68 69  		db	5, 4,		104, 105, $FF
389++ 9300 FF
390++ 9301
391++ 9301              ;figure_sprites
392++ 9301              ;		dw			    f01,    f02
393++ 9301              ;		dw			    f03,f04,f05
394++ 9301              ;		dw				f06,f07,f08
395++ 9301              ;		dw			f09,f10,f11,f12,f13
396++ 9301              ;		dw			f14,f15,f16,f17,f18
397++ 9301
# file closed: sprites.dat
 85+  9301
# file closed: 3d.asm
633   9301              		include math.asm
# file opened: math.asm
  1+  9301              ; --------------------------------
  2+  9301              ; Mnozenie dwoch liczb 8-bitowych
  3+  9301              ; czynniki: B,C. Iloczyn: HL
  4+  9301              ; --------------------------------
  5+  9301              mul8:
  6+  9301 C5           		push	bc
  7+  9302 D5           		push	de
  8+  9303
  9+  9303 21 00 00     		ld	hl,0
 10+  9306 79           		ld	a,c
 11+  9307 16 00        		ld	d,0
 12+  9309 58           		ld	e,b
 13+  930A 06 08        		ld	b,8			; licznik bitow
 14+  930C 29           _loop:	add	hl,hl
 15+  930D 17           		rla
 16+  930E 30 01        		jr	nc,_skip
 17+  9310 19           		add	hl,de
 18+  9311 10 F9        _skip:	djnz	_loop
 19+  9313
 20+  9313 D1           		pop	de
 21+  9314 C1           		pop	bc
 22+  9315 C9           		ret
 23+  9316
 24+  9316              ;-----------------------------
 25+  9316              ; Funkja zamienia liczbe w A
 26+  9316              ; na pare cyfr ASCII w C i B
 27+  9316              ; np.0Fh -> C=1, B=5
 28+  9316              ;-----------------------------
 29+  9316              h2asci:
 30+  9316 0E 00        		ld	c,0
 31+  9318              _loop2:
 32+  9318 47           		ld	b,a
 33+  9319 FE 0A        		cp	10
 34+  931B 38 05        		jr	c,_fine	;jesli a<10 koniec
 35+  931D 0C           		inc	c
 36+  931E D6 0A        		sub	10
 37+  9320 18 F6        		jr	_loop2
 38+  9322              _fine:
 39+  9322 C6 30        		add	a,'0'
 40+  9324 47           		ld	b,a
 41+  9325 79           		ld	a,c
 42+  9326 C6 30        		add	a,'0'
 43+  9328 4F           		ld	c,a
 44+  9329 C9           		ret
 45+  932A
 46+  932A              ; --------------------------------------
 47+  932A              ; Zamiana 2-cyfrowej liczby dziesietnej
 48+  932A              ; w formacie ASCII na liczbe 8-bit
 49+  932A              ; input: (HL)	output: A
 50+  932A              ; --------------------------------------
 51+  932A              ascii2num:
 52+  932A 7E           		ld	a,(hl)			; pierwszy obrot Y
 53+  932B E6 0F        		and	0Fh			; minus ascii bits
 54+  932D 87           		add	a,a			; x 2
 55+  932E 4F           		ld	c,a
 56+  932F 87           		add	a,a
 57+  9330 87           		add	a,a
 58+  9331 81           		add	a,c			; x 10
 59+  9332 4F           		ld	c,a			; save dziesiatki
 60+  9333 23           		inc	hl
 61+  9334 7E           		ld	a,(hl)
 62+  9335 E6 0F        		and	0Fh
 63+  9337 81           		add	a,c			; dziesietne + jednoscioci
 64+  9338 23           		inc	hl
 65+  9339 C9           		ret
 66+  933A              ; -------------------------------------------------------------------
 67+  933A              ; Zamienia liczbe z zakresu 1-16 na slowo z ustawionym bitem od 1-16
 68+  933A              ; IN:	A - liczba 1 - 16
 69+  933A              ;		DE - adres slowa flag
 70+  933A              ; OUT:	A - ustawiony odpowiedni bit flagi
 71+  933A              ;		C - odpowiedni bajt flagi
 72+  933A              ; -------------------------------------------------------------------
 73+  933A              nr_to_bit:
 74+  933A FE 09        		cp	9
 75+  933C 38 03        		jr	c,_low_flags
 76+  933E 13           		inc	de
 77+  933F D6 08        		sub	8
 78+  9341              _low_flags:
 79+  9341 47           		ld	b,a						; ile razy przesuwka
 80+  9342 1A           		ld	a,(de)					; hl zajete wyzej
 81+  9343 4F           		ld	c,a
 82+  9344 3E 01        		ld	a,%00000001
 83+  9346              _roll_right:
 84+  9346 0F           		rrca
 85+  9347 10 FD        		djnz	_roll_right
 86+  9349 C9           		ret
 87+  934A
 88+  934A              ; -------------------------------------------------------------------
 89+  934A              ; Zamienia slowo z ustawionym bitem od 1-16 na liczbe z zakresu 1-16
 90+  934A              ; IN:	DE - adres slowa flag
 91+  934A              ; OUT:	C - liczba od 1 do 16
 92+  934A              ; -------------------------------------------------------------------
 93+  934A
# file closed: math.asm
634   934A              		include keyboard.asm
# file opened: keyboard.asm
  1+  934A              scan_keyboard:
  2+  934A
  3+  934A 3E BF        		ld	a,Enter_H
  4+  934C DB FE        		in	a,(0FEh)
  5+  934E 2F           		cpl
  6+  934F E6 0E        		and	%00001110			; jkl
  7+  9351 C0           		ret	nz
  8+  9352
  9+  9352 3E DF        		ld	a,P_Y
 10+  9354 DB FE        		in	a,(0FEh)
 11+  9356 47           		ld	b,a
 12+  9357 2F           		cpl
 13+  9358 E6 04        		and	%00000100			; i
 14+  935A 20 0D        		jr	nz,_set_bit0
 15+  935C
 16+  935C 78           		ld	a,b
 17+  935D 2F           		cpl
 18+  935E E6 02        		and	%00000010			; o
 19+  9360 20 0A        		jr	nz,_set_bit4
 20+  9362
 21+  9362 78           		ld	a,b
 22+  9363 2F           		cpl
 23+  9364 E6 08        		and	%00001000
 24+  9366 20 07        		jr	nz,_set_bit5
 25+  9368
 26+  9368              ;		ld	a,A_G
 27+  9368              ;		in	a,(0FEh)
 28+  9368              ;		cpl
 29+  9368              ;		and	%00000010			; s
 30+  9368              ;		jr	nz,_set_bit4
 31+  9368
 32+  9368              ;		ld	a,Q_T
 33+  9368              ;		in	a,(0FEh)
 34+  9368              ;		cpl
 35+  9368              ;		and	%00010000			; t
 36+  9368              ;		jr	nz,_set_bit5
 37+  9368
 38+  9368              ;		ld	a,CS_V
 39+  9368              ;		in	a,(0FEh)
 40+  9368              ;		cpl
 41+  9368              ;		and	%00001000			; c
 42+  9368              ;		jr	nz,_set_bit6
 43+  9368
 44+  9368 C9           		ret
 45+  9369
 46+  9369              _set_bit0:
 47+  9369 3E 01        		ld	a,1
 48+  936B C9           		ret
 49+  936C              _set_bit4:
 50+  936C 3E 10        		ld	a,16
 51+  936E C9           		ret
 52+  936F              _set_bit5:
 53+  936F 3E 20        		ld	a,32
 54+  9371 C9           		ret
 55+  9372
# file closed: keyboard.asm
635   9372
636   9372              		include	data/vars.dat
# file opened: vars.dat
  1+  9372              ;=========     V A R I A B L E S     =========
  2+  9372
  3+  9372 20 0C 00 00  map	Map	{ 32, 12, $0000 }
  4+  9376
  5+  9376              ;------ hero ----------
  6+  9376              hero			Character	{
  7+  9376              ;				2, 2,						; Y X
  8+  9376 01 00 00     				1, $00,						; zwrot i offset
  9+  9379 10 0A 08     				16, 10, 8,					; stats
 10+  937C 00           				0,							; bron
 11+  937D 00           				0,							; zbroja
 12+  937E A5 80        				%10100101, %10000000		; klucze
 13+  9380              							 }
 14+  9380              ; ------- Statyczne -----------------
 15+  9380 5E 3E 76 3C  hero_i			db	'^','>','v','<'			; ikony Hero
 16+  9384              ;hero_s			db	0,-1, 1,0, 0,1, -1,0	; przesuniecie wspolrzednych
 17+  9384 00 01 00 FF  neighbor_offs:	db	0,1,0,-1
 18+  9388
 19+  9388              ; ------- Inventory ------------------------------
 20+  9388              stat_info:
 21+  9388 20 68 70 3A  			db	" hp:00$"
 21+  938C 30 30 24
 22+  938F 73 74 72 3A  			db	"str:00$"
 22+  9393 30 30 24
 23+  9396 64 65 66 3A  			db	"def:00$"
 23+  939A 30 30 24
 24+  939D 77 65 70 3A  __1st		db	"wep:   $"
 24+  93A1 20 20 20 24
 25+  93A5 61 6D 72 3A  			db	"amr:   $"
 25+  93A9 20 20 20 24
 26+  93AD              __lst
 27+  93AD
 28+  93AD              LABELS_NUMBER	equ		( __lst - __1st ) / 8
 29+  93AD
 30+  93AD              ; ------- Weapons & Armour names ---------------
 31+  93AD              weapon_names:
 32+  93AD 48 4E 44     			db	"HND"			; Hands
 33+  93B0 54 52 4F     			db	"TRO"			; Hand Trowel
 34+  93B3 53 48 45     			db	"SHE"			; Pruning Shears
 35+  93B6 57 45 45     			db	"WEE"			; Garden Weeder
 36+  93B9 48 52 41     			db	"HRA"			; Hand Rake
 37+  93BC 53 49 43     			db	"SIC"			; Sickle
 38+  93BF 54 52 49     			db	"TRI"			; Hedge Trimmers
 39+  93C2 4C 4F 50     			db	"LOP"			; Loppers
 40+  93C5 48 4F 45     			db	"HOE"			; Garden Hoe
 41+  93C8 50 49 54     			db	"PIT"			; Pitchfork
 42+  93CB 47 52 41     			db	"GRA"			; Garden Rake
 43+  93CE 53 50 41     			db	"SPA"			; Spade
 44+  93D1 53 48 4F     			db	"SHO"			; Shovel
 45+  93D4 50 49 43     			db	"PIC"			; Pickaxe
 46+  93D7 4D 41 43     			db	"MAC"			; Machete
 47+  93DA 41 58 45     			db	"AXE"			; Axe
 48+  93DD 43 48 41     			db	"CHA"			; Chainsaw
 49+  93E0              armour_names:
 50+  93E0 53 4B 4E     			db	"SKN"			; Skin
 51+  93E3 47 4C 4F     			db	"GLO"			; Thick Leather Gloves
 52+  93E6 53 41 43     			db	"SAC"			; Burlap Sack
 53+  93E9 46 4C 41     			db	"FLA"			; Heavy Flannel Shirt
 54+  93EC 53 54 52     			db	"STR"			; Straw Bale (Shielding)
 55+  93EF 54 41 52     			db	"TAR"			; Canvas Tarpaulin
 56+  93F2 48 49 44     			db	"HID"			; Cured Animal Hide
 57+  93F5 57 41 44     			db	"WAD"			; Rubber Waders
 58+  93F8 42 41 53     			db	"BAS"			; Woven Wicker Basket
 59+  93FB 42 41 52     			db	"BAR"			; Tree Bark Bracers
 60+  93FE 46 45 4E     			db	"FEN"			; Wooden Fence Picket
 61+  9401 4D 45 54     			db	"MET"			; Shield Metal Scrap
 62+  9404 42 55 43     			db	"BUC"			; Steel Bucket (Helmet)
 63+  9407 54 49 52     			db	"TIR"			; Tractor Tire Rubber
 64+  940A 42 41 52     			db	"BAR"			; Large Plastic Barrel
 65+  940D 4C 49 44     			db	"LID"			; Steel Dustbin Lid
 66+  9410 47 52 41     			db	"GRA"			; Heavy Iron Grate
 67+  9413
 68+  9413              ;------ doors & passages --------
 69+  9413 00 00 00...  doors		ds	OBJ_MAX * 2		; drzwi: ofs lsb, msb
 70+  9433 00 00 00...  passages	ds	OBJ_MAX * 2		; ukryte przejscia
 71+  9453 00 00 00...  m_walls		ds	OBJ_MAX * 2		; przesuwane sciany
 72+  9473 00           door_nr		db	0				; numer drzwi na ktore patrzy Hero
 73+  9474
 74+  9474              ; ------ game flags -----------
 75+  9474 00           message_flag	db	0
 76+  9475 00           game_flags	db	0
 77+  9476 00 00        flash_adr	dw	$0000			; adres migajacego char'a w pamieci atrybutow
 78+  9478
# file closed: vars.dat
637   9478              		include	data/messages.dat
# file opened: messages.dat
  1+  9478              ; ---------------------------------
  2+  9478              ; nacisniecie klawisza
  3+  9478              ; ---------------------------------
  4+  9478 73 65 61 72  msg_searching	db	"searching ...$"
  4+  947C 63 68 69 6E
  4+  9480 67 20 2E 2E
  4+  9484 2E 24
  5+  9486 4E 6F 74 68  msg_nothing		db	"Nothing special$"
  5+  948A 69 6E 67 20
  5+  948E 73 70 65 63
  5+  9492 69 61 6C 24
  6+  9496 50 61 73 73  msg_psgfinded	db	"Passage Found!$"
  6+  949A 61 67 65 20
  6+  949E 46 6F 75 6E
  6+  94A2 64 21 24
  7+  94A5 44 6F 6F 72  msg_door		db	"Door num "
  7+  94A9 20 6E 75 6D
  7+  94AD 20
  8+  94AE 00 00 24     msg_door_nr		db	0, 0, "$"
  9+  94B1 4E 6F 20 64  msg_nodoor		db	"No door here.$"
  9+  94B5 6F 6F 72 20
  9+  94B9 68 65 72 65
  9+  94BD 2E 24
 10+  94BF 4E 65 65 64  msg_nokey		db	"Need a Key!$"
 10+  94C3 20 61 20 4B
 10+  94C7 65 79 21 24
 11+  94CB 4B 65 79 20  msg_key			db	"Key Found!$"
 11+  94CF 46 6F 75 6E
 11+  94D3 64 21 24
 12+  94D6 57 65 61 70  msg_weapon		db	"Weapon Found!$"
 12+  94DA 6F 6E 20 46
 12+  94DE 6F 75 6E 64
 12+  94E2 21 24
 13+  94E4 41 72 6D 6F  msg_armour		db	"Armour Found!$"
 13+  94E8 75 72 20 46
 13+  94EC 6F 75 6E 64
 13+  94F0 21 24
 14+  94F2 4F 6E 20 54  msg_floor		db	"On The Floor:$"
 14+  94F6 68 65 20 46
 14+  94FA 6C 6F 6F 72
 14+  94FE 3A 24
 15+  9500 44 75 73 74  msg_dust		db	"Dust and Lint$"
 15+  9504 20 61 6E 64
 15+  9508 20 4C 69 6E
 15+  950C 74 24
 16+  950E 48 6D 6D 2E  msg_figure1		db	"Hmm.. I saw him$"
 16+  9512 2E 20 49 20
 16+  9516 73 61 77 20
 16+  951A 68 69 6D 24
 17+  951E 73 6F 6D 65  msg_figure2		db	"somewhere$"
 17+  9522 77 68 65 72
 17+  9526 65 24
 18+  9528 74 68 65 20  msg_teleport	db	"the end$"
 18+  952C 65 6E 64 24
 19+  9530 6E 6F 20 77  msg_no_way		db	"no way!$"
 19+  9534 61 79 21 24
 20+  9538 4D 6F 76 65  msg_mwall		db	"Moved!$"
 20+  953C 64 21 24
 21+  953F 54 68 65 20  msg_pitfilled	db	"The pit is sealed$"
 21+  9543 70 69 74 20
 21+  9547 69 73 20 73
 21+  954B 65 61 6C 65
 21+  954F 64 24
 22+  9551 59 6F 75 20  msg_pit			db	"You fell in a Pit$"
 22+  9555 66 65 6C 6C
 22+  9559 20 69 6E 20
 22+  955D 61 20 50 69
 22+  9561 74 24
 23+  9563 42 61 63 6B  msg_restart		db	"Back to start....$"
 23+  9567 20 74 6F 20
 23+  956B 73 74 61 72
 23+  956F 74 2E 2E 2E
 23+  9573 2E 24
 24+  9575
# file closed: messages.dat
638   9575              		include data/map.dat
# file opened: map.dat
  1+  9575              ; ---------------------------------------
  2+  9575              ;		Mapa gry
  3+  9575              ;
  4+  9575              ; # - Sciana nie do przejscia
  5+  9575              ; M - Scian ruchoma
  6+  9575              ; = - Ukryte przejscie
  7+  9575              ; .	- Zapadnia
  8+  9575              ; + - Drzwi zamkniete
  9+  9575              ; / - Drzwi otwarte
 10+  9575              ; ~ - Klucz
 11+  9575              ; ( - Bron
 12+  9575              ; [ - Zbroja
 13+  9575              ; & - Postac
 14+  9575              ; P - Portal
 15+  9575              ;
 16+  9575              ; ---------------------------------------
 17+  9575
 18+  9575              MAP:
 19+  9575 23 23 23 23  	db	'################################'
 19+  9579 23 23 23 23
 19+  957D 23 23 23 23
 19+  9581 23 23 23 23
 19+  9585 23 23 23 23
 19+  9589 23 23 23 23
 19+  958D 23 23 23 23
 19+  9591 23 23 23 23
 20+  9595 23 20 20 3D  	db	'#  = + M    #   ####(# +   #   #'
 20+  9599 20 2B 20 4D
 20+  959D 20 20 20 20
 20+  95A1 23 20 20 20
 20+  95A5 23 23 23 23
 20+  95A9 28 23 20 2B
 20+  95AD 20 20 20 23
 20+  95B1 20 20 20 23
 21+  95B5 23 20 20 23  	db	'#  ### #.M ###  #  #+# #   + # #'
 21+  95B9 23 23 20 23
 21+  95BD 2E 4D 20 23
 21+  95C1 23 23 20 20
 21+  95C5 23 20 20 23
 21+  95C9 2B 23 20 23
 21+  95CD 20 20 20 2B
 21+  95D1 20 23 20 23
 22+  95D5 23 23 23 23  	db	'#####  #[#####/### # # #########'
 22+  95D9 23 20 20 23
 22+  95DD 5B 23 23 23
 22+  95E1 23 23 2F 23
 22+  95E5 23 23 20 23
 22+  95E9 20 23 20 23
 22+  95ED 23 23 23 23
 22+  95F1 23 23 23 23
 23+  95F5 23 7E 23 20  	db	'#~# #+###### #  M ## #         #'
 23+  95F9 23 2B 23 23
 23+  95FD 23 23 23 23
 23+  9601 20 23 20 20
 23+  9605 4D 20 23 23
 23+  9609 20 23 20 20
 23+  960D 20 20 20 20
 23+  9611 20 20 20 23
 24+  9615 23 3D 23 20  	db	'#=# + #~   ###+# ### #+##  ###+#'
 24+  9619 2B 20 23 7E
 24+  961D 20 20 20 23
 24+  9621 23 23 2B 23
 24+  9625 20 23 23 23
 24+  9629 20 23 2B 23
 24+  962D 23 20 20 23
 24+  9631 23 23 2B 23
 25+  9635 23 20 20 20  	db	'#   # =  # +   #     # ##    #(#'
 25+  9639 23 20 3D 20
 25+  963D 20 23 20 2B
 25+  9641 20 20 20 23
 25+  9645 20 20 20 20
 25+  9649 20 23 20 23
 25+  964D 23 20 20 20
 25+  9651 20 23 28 23
 26+  9655 23 3D 23 23  	db	'#=##############################'
 26+  9659 23 23 23 23
 26+  965D 23 23 23 23
 26+  9661 23 23 23 23
 26+  9665 23 23 23 23
 26+  9669 23 23 23 23
 26+  966D 23 23 23 23
 26+  9671 23 23 23 23
 27+  9675 23 20 20 23  	db	'#  #P#[  #      #=#    #       #'
 27+  9679 50 23 5B 20
 27+  967D 20 23 20 20
 27+  9681 20 20 20 20
 27+  9685 23 3D 23 20
 27+  9689 20 20 20 23
 27+  968D 20 20 20 20
 27+  9691 20 20 20 23
 28+  9695 23 20 20 23  	db	'#  #&#########  +   ## ##+#+#=##'
 28+  9699 26 23 23 23
 28+  969D 23 23 23 23
 28+  96A1 23 23 20 20
 28+  96A5 2B 20 20 20
 28+  96A9 23 23 20 23
 28+  96AD 23 2B 23 2B
 28+  96B1 23 3D 23 23
 29+  96B5 23 20 20 4D  	db	'#  M  # #       ###       # #  #'
 29+  96B9 20 20 23 20
 29+  96BD 23 20 20 20
 29+  96C1 20 20 20 20
 29+  96C5 23 23 23 20
 29+  96C9 20 20 20 20
 29+  96CD 20 20 23 20
 29+  96D1 23 20 20 23
 30+  96D5 23 23 23 23  	db	'################################'
 30+  96D9 23 23 23 23
 30+  96DD 23 23 23 23
 30+  96E1 23 23 23 23
 30+  96E5 23 23 23 23
 30+  96E9 23 23 23 23
 30+  96ED 23 23 23 23
 30+  96F1 23 23 23 23
 31+  96F5
 32+  96F5              ; ----------------------------------------------------------
 33+  96F5              ; search_key przeszukuje mape liczac kolejne klucze
 34+  96F5              ; Jesli znjdzie przypisuje mu nr klucza wg tej tabeli
 35+  96F5              ; ----------------------------------------------------------
 36+  96F5              key_door_nr:
 37+  96F5 0B           	db	11	;00
 38+  96F6 07           	db	7	;01
 39+  96F7              ; ----------------------------------------------------------
 40+  96F7              ; take_weapon przeszukuje mape liczac kolejne bronie
 41+  96F7              ; Jesli znjdzie przypisuje mu wartosc wg tej tabeli
 42+  96F7              ; ----------------------------------------------------------
 43+  96F7              weapon_pow:
 44+  96F7 01           	db	1
 45+  96F8 02           	db	2
 46+  96F9              ; ----------------------------------------------------------
 47+  96F9              ; take_armour przeszukuje mape liczac kolejne zbroje
 48+  96F9              ; Jesli znjdzie przypisuje mu wartosc wg tej tabeli
 49+  96F9              ; ----------------------------------------------------------
 50+  96F9              armour_pow:
 51+  96F9 01           	db	1
 52+  96FA
 53+  96FA
# file closed: map.dat
639   96FA
640   96FA              ;==================
641   96FA
642   96FA              End:
643   96FA
644   96FA                  ; drugi blok (CODE) na tasme
645   96FA                  SAVETAP "dng.tap", CODE, "Dungeology", Start, End - Start
646   96FA
# file closed: dung.asm
